EXPORTS 
	??_R0?AV?$_Ref_count_obj2@U_Dir_enum_impl@filesystem@std@@@std@@@8 	 DATA
	??_R0?AV_Generic_error_category@std@@@8 	 DATA
	??_R0?AV_Ref_count_base@std@@@8 	 DATA
	??_R0?AV_System_error@std@@@8 	 DATA
	??_R0?AV_System_error_category@std@@@8 	 DATA
	??_R0?AVbad_alloc@std@@@8 	 DATA
	??_R0?AVbad_array_new_length@std@@@8 	 DATA
	??_R0?AVerror_category@std@@@8 	 DATA
	??_R0?AVexception@std@@@8 	 DATA
	??_R0?AVfilesystem_error@filesystem@std@@@8 	 DATA
	??_R0?AVruntime_error@std@@@8 	 DATA
	??_R0?AVsystem_error@std@@@8 	 DATA
	?IMAGE_INPUT_NAME@ChineseCLIPProcessor@@0V?$basic_string@DU?$char_traits@D@std@@V?$allocator@D@2@@std@@B 	 DATA
	?TEXT_ATTENTION_MASK_NAME@ChineseCLIPProcessor@@0V?$basic_string@DU?$char_traits@D@std@@V?$allocator@D@2@@std@@B 	 DATA
	?TEXT_INPUT_IDS_NAME@ChineseCLIPProcessor@@0V?$basic_string@DU?$char_traits@D@std@@V?$allocator@D@2@@std@@B 	 DATA
	?_Static@?1???$_Immortalize_memcpy_image@V_Generic_error_category@std@@@std@@YAAEBV_Generic_error_category@1@XZ@4U?$_Constexpr_immortalize_impl@V_Generic_error_category@std@@@1@A 	 DATA
	?_Static@?1???$_Immortalize_memcpy_image@V_System_error_category@std@@@std@@YAAEBV_System_error_category@1@XZ@4U?$_Constexpr_immortalize_impl@V_System_error_category@std@@@1@A 	 DATA
	_Avx2WmemEnabledWeakValue 	 DATA
	??$?0$$V@?$_Compressed_pair@U?$default_delete@VChineseCLIPProcessor@@@std@@PEAVChineseCLIPProcessor@@$00@std@@QEAA@U_Zero_then_variadic_args_t@1@@Z
	??$?0$$V@?$_Compressed_pair@U?$default_delete@VCompiledModel@ov@@@std@@PEAVCompiledModel@ov@@$00@std@@QEAA@U_Zero_then_variadic_args_t@1@@Z
	??$?0$$V@?$_Compressed_pair@U?$default_delete@VCore@ov@@@std@@PEAVCore@ov@@$00@std@@QEAA@U_Zero_then_variadic_args_t@1@@Z
	??$?0$$V@?$_Compressed_pair@U?$default_delete@VSentencePieceProcessor@sentencepiece@@@std@@PEAVSentencePieceProcessor@sentencepiece@@$00@std@@QEAA@U_Zero_then_variadic_args_t@1@@Z
	??$?0$$V@?$_Compressed_pair@U?$default_delete@VVLMProcessor@@@std@@PEAVVLMProcessor@@$00@std@@QEAA@U_Zero_then_variadic_args_t@1@@Z
	??$?0$$V@?$_Compressed_pair@V?$allocator@D@std@@V?$_String_val@U?$_Simple_types@D@std@@@2@$00@std@@QEAA@U_Zero_then_variadic_args_t@1@@Z
	??$?0$$V@?$_Compressed_pair@V?$allocator@D@std@@V?$_Vector_val@U?$_Simple_types@D@std@@@2@$00@std@@QEAA@U_Zero_then_variadic_args_t@1@@Z
	??$?0$$V@?$_Compressed_pair@V?$allocator@H@std@@V?$_Vector_val@U?$_Simple_types@H@std@@@2@$00@std@@QEAA@U_Zero_then_variadic_args_t@1@@Z
	??$?0$$V@?$_Compressed_pair@V?$allocator@M@std@@V?$_Vector_val@U?$_Simple_types@M@std@@@2@$00@std@@QEAA@U_Zero_then_variadic_args_t@1@@Z
	??$?0$$V@?$_Compressed_pair@V?$allocator@PEBD@std@@V?$_Vector_val@U?$_Simple_types@PEBD@std@@@2@$00@std@@QEAA@U_Zero_then_variadic_args_t@1@@Z
	??$?0$$V@?$_Compressed_pair@V?$allocator@U?$_Tree_node@U?$pair@$$CBV?$basic_string@DU?$char_traits@D@std@@V?$allocator@D@2@@std@@VAny@ov@@@std@@PEAX@std@@@std@@V?$_Tree_val@U?$_Tree_simple_types@U?$pair@$$CBV?$basic_string@DU?$char_traits@D@std@@V?$allocator@D@2@@std@@VAny@ov@@@std@@@std@@@2@$00@std@@QEAA@U_Zero_then_variadic_args_t@1@@Z
	??$?0$$V@?$_Compressed_pair@V?$allocator@UImageInput@@@std@@V?$_Vector_val@U?$_Simple_types@UImageInput@@@std@@@2@$00@std@@QEAA@U_Zero_then_variadic_args_t@1@@Z
	??$?0$$V@?$_Compressed_pair@V?$allocator@V?$basic_string@DU?$char_traits@D@std@@V?$allocator@D@2@@std@@@std@@V?$_Vector_val@U?$_Simple_types@V?$basic_string@DU?$char_traits@D@std@@V?$allocator@D@2@@std@@@std@@@2@$00@std@@QEAA@U_Zero_then_variadic_args_t@1@@Z
	??$?0$$V@?$_Compressed_pair@V?$allocator@V?$vector@HV?$allocator@H@std@@@std@@@std@@V?$_Vector_val@U?$_Simple_types@V?$vector@HV?$allocator@H@std@@@std@@@std@@@2@$00@std@@QEAA@U_Zero_then_variadic_args_t@1@@Z
	??$?0$$V@?$_Compressed_pair@V?$allocator@V?$vector@MV?$allocator@M@std@@@std@@@std@@V?$_Vector_val@U?$_Simple_types@V?$vector@MV?$allocator@M@std@@@std@@@std@@@2@$00@std@@QEAA@U_Zero_then_variadic_args_t@1@@Z
	??$?0$$V@?$_Compressed_pair@V?$allocator@_W@std@@V?$_String_val@U?$_Simple_types@_W@std@@@2@$00@std@@QEAA@U_Zero_then_variadic_args_t@1@@Z
	??$?0AEAPEAVChineseCLIPProcessor@@@?$_Compressed_pair@U?$default_delete@VChineseCLIPProcessor@@@std@@PEAVChineseCLIPProcessor@@$00@std@@QEAA@U_Zero_then_variadic_args_t@1@AEAPEAVChineseCLIPProcessor@@@Z
	??$?0AEAPEAVCompiledModel@ov@@@?$_Compressed_pair@U?$default_delete@VCompiledModel@ov@@@std@@PEAVCompiledModel@ov@@$00@std@@QEAA@U_Zero_then_variadic_args_t@1@AEAPEAVCompiledModel@ov@@@Z
	??$?0AEAPEAVCore@ov@@@?$_Compressed_pair@U?$default_delete@VCore@ov@@@std@@PEAVCore@ov@@$00@std@@QEAA@U_Zero_then_variadic_args_t@1@AEAPEAVCore@ov@@@Z
	??$?0AEAPEAVSentencePieceProcessor@sentencepiece@@@?$_Compressed_pair@U?$default_delete@VSentencePieceProcessor@sentencepiece@@@std@@PEAVSentencePieceProcessor@sentencepiece@@$00@std@@QEAA@U_Zero_then_variadic_args_t@1@AEAPEAVSentencePieceProcessor@sentencepiece@@@Z
	??$?0AEAPEAVVLMProcessor@@@?$_Compressed_pair@U?$default_delete@VVLMProcessor@@@std@@PEAVVLMProcessor@@$00@std@@QEAA@U_Zero_then_variadic_args_t@1@AEAPEAVVLMProcessor@@@Z
	??$?0AEAV?$allocator@D@std@@$$V@?$_Compressed_pair@V?$allocator@D@std@@V?$_String_val@U?$_Simple_types@D@std@@@2@$00@std@@QEAA@U_One_then_variadic_args_t@1@AEAV?$allocator@D@1@@Z
	??$?0AEBU?$less@V?$basic_string@DU?$char_traits@D@std@@V?$allocator@D@2@@std@@@std@@U_Zero_then_variadic_args_t@1@@?$_Compressed_pair@U?$less@V?$basic_string@DU?$char_traits@D@std@@V?$allocator@D@2@@std@@@std@@V?$_Compressed_pair@V?$allocator@U?$_Tree_node@U?$pair@$$CBV?$basic_string@DU?$char_traits@D@std@@V?$allocator@D@2@@std@@VAny@ov@@@std@@PEAX@std@@@std@@V?$_Tree_val@U?$_Tree_simple_types@U?$pair@$$CBV?$basic_string@DU?$char_traits@D@std@@V?$allocator@D@2@@std@@VAny@ov@@@std@@@std@@@2@$00@2@$00@std@@QEAA@U_One_then_variadic_args_t@1@AEBU?$less@V?$basic_string@DU?$char_traits@D@std@@V?$allocator@D@2@@std@@@1@$$QEAU_Zero_then_variadic_args_t@1@@Z
	??$?0AEBV?$allocator@D@std@@$$V@?$_Compressed_pair@V?$allocator@D@std@@V?$_String_val@U?$_Simple_types@D@std@@@2@$00@std@@QEAA@U_One_then_variadic_args_t@1@AEBV?$allocator@D@1@@Z
	??$?0AEBV?$allocator@D@std@@$$V@?$_Compressed_pair@V?$allocator@D@std@@V?$_Vector_val@U?$_Simple_types@D@std@@@2@$00@std@@QEAA@U_One_then_variadic_args_t@1@AEBV?$allocator@D@1@@Z
	??$?0AEBV?$allocator@H@std@@$$V@?$_Compressed_pair@V?$allocator@H@std@@V?$_Vector_val@U?$_Simple_types@H@std@@@2@$00@std@@QEAA@U_One_then_variadic_args_t@1@AEBV?$allocator@H@1@@Z
	??$?0AEBV?$allocator@I@std@@$$V@?$_Compressed_pair@V?$allocator@I@std@@V?$_Vector_val@U?$_Simple_types@I@std@@@2@$00@std@@QEAA@U_One_then_variadic_args_t@1@AEBV?$allocator@I@1@@Z
	??$?0AEBV?$allocator@M@std@@$$V@?$_Compressed_pair@V?$allocator@M@std@@V?$_Vector_val@U?$_Simple_types@M@std@@@2@$00@std@@QEAA@U_One_then_variadic_args_t@1@AEBV?$allocator@M@1@@Z
	??$?0AEBV?$allocator@PEAD@std@@$$V@?$_Compressed_pair@V?$allocator@PEAD@std@@V?$_Vector_val@U?$_Simple_types@PEAD@std@@@2@$00@std@@QEAA@U_One_then_variadic_args_t@1@AEBV?$allocator@PEAD@1@@Z
	??$?0AEBV?$allocator@V?$basic_string@DU?$char_traits@D@std@@V?$allocator@D@2@@std@@@std@@$$V@?$_Compressed_pair@V?$allocator@V?$basic_string@DU?$char_traits@D@std@@V?$allocator@D@2@@std@@@std@@V?$_Vector_val@U?$_Simple_types@V?$basic_string@DU?$char_traits@D@std@@V?$allocator@D@2@@std@@@std@@@2@$00@std@@QEAA@U_One_then_variadic_args_t@1@AEBV?$allocator@V?$basic_string@DU?$char_traits@D@std@@V?$allocator@D@2@@std@@@1@@Z
	??$?0AEBV?$allocator@V?$vector@DV?$allocator@D@std@@@std@@@std@@$$V@?$_Compressed_pair@V?$allocator@V?$vector@DV?$allocator@D@std@@@std@@@std@@V?$_Vector_val@U?$_Simple_types@V?$vector@DV?$allocator@D@std@@@std@@@std@@@2@$00@std@@QEAA@U_One_then_variadic_args_t@1@AEBV?$allocator@V?$vector@DV?$allocator@D@std@@@std@@@1@@Z
	??$?0AEBV?$allocator@V?$vector@MV?$allocator@M@std@@@std@@@std@@$$V@?$_Compressed_pair@V?$allocator@V?$vector@MV?$allocator@M@std@@@std@@@std@@V?$_Vector_val@U?$_Simple_types@V?$vector@MV?$allocator@M@std@@@std@@@std@@@2@$00@std@@QEAA@U_One_then_variadic_args_t@1@AEBV?$allocator@V?$vector@MV?$allocator@M@std@@@std@@@1@@Z
	??$?0AEBV?$allocator@_W@std@@$$V@?$_Compressed_pair@V?$allocator@_W@std@@V?$_String_val@U?$_Simple_types@_W@std@@@2@$00@std@@QEAA@U_One_then_variadic_args_t@1@AEBV?$allocator@_W@1@@Z
	??$?0PEAD$0A@@?$basic_string@DU?$char_traits@D@std@@V?$allocator@D@2@@std@@QEAA@PEAD0AEBV?$allocator@D@1@@Z
	??$?0PEBM$0A@@?$vector@MV?$allocator@M@std@@@std@@QEAA@PEBM0AEBV?$allocator@M@1@@Z
	??$?0U?$default_delete@VChineseCLIPProcessor@@@std@@$0A@@?$unique_ptr@VChineseCLIPProcessor@@U?$default_delete@VChineseCLIPProcessor@@@std@@@std@@QEAA@PEAVChineseCLIPProcessor@@@Z
	??$?0U?$default_delete@VChineseCLIPProcessor@@@std@@$0A@@?$unique_ptr@VChineseCLIPProcessor@@U?$default_delete@VChineseCLIPProcessor@@@std@@@std@@QEAA@XZ
	??$?0U?$default_delete@VCompiledModel@ov@@@std@@$0A@@?$unique_ptr@VCompiledModel@ov@@U?$default_delete@VCompiledModel@ov@@@std@@@std@@QEAA@$$T@Z
	??$?0U?$default_delete@VCompiledModel@ov@@@std@@$0A@@?$unique_ptr@VCompiledModel@ov@@U?$default_delete@VCompiledModel@ov@@@std@@@std@@QEAA@PEAVCompiledModel@ov@@@Z
	??$?0U?$default_delete@VCore@ov@@@std@@$0A@@?$unique_ptr@VCore@ov@@U?$default_delete@VCore@ov@@@std@@@std@@QEAA@$$T@Z
	??$?0U?$default_delete@VCore@ov@@@std@@$0A@@?$unique_ptr@VCore@ov@@U?$default_delete@VCore@ov@@@std@@@std@@QEAA@PEAVCore@ov@@@Z
	??$?0U?$default_delete@VSentencePieceProcessor@sentencepiece@@@std@@$0A@@?$unique_ptr@VSentencePieceProcessor@sentencepiece@@U?$default_delete@VSentencePieceProcessor@sentencepiece@@@std@@@std@@QEAA@$$T@Z
	??$?0U?$default_delete@VSentencePieceProcessor@sentencepiece@@@std@@$0A@@?$unique_ptr@VSentencePieceProcessor@sentencepiece@@U?$default_delete@VSentencePieceProcessor@sentencepiece@@@std@@@std@@QEAA@PEAVSentencePieceProcessor@sentencepiece@@@Z
	??$?0U?$default_delete@VVLMProcessor@@@std@@$0A@@?$unique_ptr@VVLMProcessor@@U?$default_delete@VVLMProcessor@@@std@@@std@@QEAA@PEAVVLMProcessor@@@Z
	??$?0U?$default_delete@VVLMProcessor@@@std@@$0A@@?$unique_ptr@VVLMProcessor@@U?$default_delete@VVLMProcessor@@@std@@@std@@QEAA@XZ
	??$?0U_Creator@_Dir_enum_impl@filesystem@std@@AEBW4directory_options@23@@?$_Ref_count_obj2@U_Dir_enum_impl@filesystem@std@@@std@@QEAA@$$QEAU_Creator@_Dir_enum_impl@filesystem@1@AEBW4directory_options@41@@Z
	??$?0V?$allocator@D@std@@$$V@?$_Compressed_pair@V?$allocator@D@std@@V?$_String_val@U?$_Simple_types@D@std@@@2@$00@std@@QEAA@U_One_then_variadic_args_t@1@$$QEAV?$allocator@D@1@@Z
	??$?0V?$allocator@H@std@@$$V@?$_Compressed_pair@V?$allocator@H@std@@V?$_Vector_val@U?$_Simple_types@H@std@@@2@$00@std@@QEAA@U_One_then_variadic_args_t@1@$$QEAV?$allocator@H@1@@Z
	??$?0V?$allocator@H@std@@$0A@@?$vector@HV?$allocator@H@std@@@std@@QEAA@_KAEBHAEBV?$allocator@H@1@@Z
	??$?0V?$allocator@H@std@@PEAHPEAHPEAH@?$_Compressed_pair@V?$allocator@H@std@@V?$_Vector_val@U?$_Simple_types@H@std@@@2@$00@std@@QEAA@U_One_then_variadic_args_t@1@$$QEAV?$allocator@H@1@$$QEAPEAH22@Z
	??$?0V?$allocator@I@std@@$0A@@?$vector@IV?$allocator@I@std@@@std@@QEAA@_KAEBIAEBV?$allocator@I@1@@Z
	??$?0V?$allocator@M@std@@$$V@?$_Compressed_pair@V?$allocator@M@std@@V?$_Vector_val@U?$_Simple_types@M@std@@@2@$00@std@@QEAA@U_One_then_variadic_args_t@1@$$QEAV?$allocator@M@1@@Z
	??$?0V?$allocator@M@std@@$0A@@?$vector@MV?$allocator@M@std@@@std@@QEAA@_KAEBMAEBV?$allocator@M@1@@Z
	??$?0V?$allocator@M@std@@PEAMPEAMPEAM@?$_Compressed_pair@V?$allocator@M@std@@V?$_Vector_val@U?$_Simple_types@M@std@@@2@$00@std@@QEAA@U_One_then_variadic_args_t@1@$$QEAV?$allocator@M@1@$$QEAPEAM22@Z
	??$?0V?$allocator@V?$Output@$$CBVNode@ov@@@ov@@@std@@$$V@?$_Compressed_pair@V?$allocator@V?$Output@$$CBVNode@ov@@@ov@@@std@@V?$_Vector_val@U?$_Simple_types@V?$Output@$$CBVNode@ov@@@ov@@@std@@@2@$00@std@@QEAA@U_One_then_variadic_args_t@1@$$QEAV?$allocator@V?$Output@$$CBVNode@ov@@@ov@@@1@@Z
	??$?0V?$allocator@V?$basic_string@DU?$char_traits@D@std@@V?$allocator@D@2@@std@@@std@@PEAV?$basic_string@DU?$char_traits@D@std@@V?$allocator@D@2@@1@PEAV21@PEAV21@@?$_Compressed_pair@V?$allocator@V?$basic_string@DU?$char_traits@D@std@@V?$allocator@D@2@@std@@@std@@V?$_Vector_val@U?$_Simple_types@V?$basic_string@DU?$char_traits@D@std@@V?$allocator@D@2@@std@@@std@@@2@$00@std@@QEAA@U_One_then_variadic_args_t@1@$$QEAV?$allocator@V?$basic_string@DU?$char_traits@D@std@@V?$allocator@D@2@@std@@@1@$$QEAPEAV?$basic_string@DU?$char_traits@D@std@@V?$allocator@D@2@@1@22@Z
	??$?0V?$allocator@V?$vector@MV?$allocator@M@std@@@std@@@std@@PEAV?$vector@MV?$allocator@M@std@@@1@PEAV21@PEAV21@@?$_Compressed_pair@V?$allocator@V?$vector@MV?$allocator@M@std@@@std@@@std@@V?$_Vector_val@U?$_Simple_types@V?$vector@MV?$allocator@M@std@@@std@@@std@@@2@$00@std@@QEAA@U_One_then_variadic_args_t@1@$$QEAV?$allocator@V?$vector@MV?$allocator@M@std@@@std@@@1@$$QEAPEAV?$vector@MV?$allocator@M@std@@@1@22@Z
	??$?0V?$allocator@_W@std@@$$V@?$_Compressed_pair@V?$allocator@_W@std@@V?$_String_val@U?$_Simple_types@_W@std@@@2@$00@std@@QEAA@U_One_then_variadic_args_t@1@$$QEAV?$allocator@_W@1@@Z
	??$?0V?$basic_string@DU?$char_traits@D@std@@V?$allocator@D@2@@std@@$0A@@path@filesystem@std@@QEAA@AEBV?$basic_string@DU?$char_traits@D@std@@V?$allocator@D@2@@2@W4format@012@@Z
	??$?0V?$basic_string_view@_WU?$char_traits@_W@std@@@std@@$0A@@?$basic_string@_WU?$char_traits@_W@std@@V?$allocator@_W@2@@std@@QEAA@AEBV?$basic_string_view@_WU?$char_traits@_W@std@@@1@AEBV?$allocator@_W@1@@Z
	??$?0V?$basic_string_view@_WU?$char_traits@_W@std@@@std@@$0A@@path@filesystem@std@@QEAA@AEBV?$basic_string_view@_WU?$char_traits@_W@std@@@2@W4format@012@@Z
	??$?0VModel@ov@@$0A@@?$shared_ptr@$$CBVModel@ov@@@std@@QEAA@AEBV?$shared_ptr@VModel@ov@@@1@@Z
	??$?4U?$default_delete@VChineseCLIPProcessor@@@std@@$0A@@?$unique_ptr@VChineseCLIPProcessor@@U?$default_delete@VChineseCLIPProcessor@@@std@@@std@@QEAAAEAV01@$$QEAV01@@Z
	??$?4U?$default_delete@VCompiledModel@ov@@@std@@$0A@@?$unique_ptr@VCompiledModel@ov@@U?$default_delete@VCompiledModel@ov@@@std@@@std@@QEAAAEAV01@$$QEAV01@@Z
	??$?4U?$default_delete@VCore@ov@@@std@@$0A@@?$unique_ptr@VCore@ov@@U?$default_delete@VCore@ov@@@std@@@std@@QEAAAEAV01@$$QEAV01@@Z
	??$?4U?$default_delete@VSentencePieceProcessor@sentencepiece@@@std@@$0A@@?$unique_ptr@VSentencePieceProcessor@sentencepiece@@U?$default_delete@VSentencePieceProcessor@sentencepiece@@@std@@@std@@QEAAAEAV01@$$QEAV01@@Z
	??$?4U?$default_delete@VVLMProcessor@@@std@@$0A@@?$unique_ptr@VVLMProcessor@@U?$default_delete@VVLMProcessor@@@std@@@std@@QEAAAEAV01@$$QEAV01@@Z
	??$?6DU?$char_traits@D@std@@V?$allocator@D@1@@std@@YAAEAV?$basic_ostream@DU?$char_traits@D@std@@@0@AEAV10@AEBV?$basic_string@DU?$char_traits@D@std@@V?$allocator@D@2@@0@@Z
	??$?6U?$char_traits@D@std@@@std@@YAAEAV?$basic_ostream@DU?$char_traits@D@std@@@0@AEAV10@PEBD@Z
	??$?8DU?$char_traits@D@std@@V?$allocator@D@1@@std@@YA_NAEBV?$basic_string@DU?$char_traits@D@std@@V?$allocator@D@2@@0@0@Z
	??$?8URep@Status@util@sentencepiece@@U?$default_delete@URep@Status@util@sentencepiece@@@std@@@std@@YA_NAEBV?$unique_ptr@URep@Status@util@sentencepiece@@U?$default_delete@URep@Status@util@sentencepiece@@@std@@@0@$$T@Z
	??$?9U_Dir_enum_impl@filesystem@std@@U012@@std@@YA_NAEBV?$shared_ptr@U_Dir_enum_impl@filesystem@std@@@0@0@Z
	??$?CU_Dir_enum_impl@filesystem@std@@$0A@@?$shared_ptr@U_Dir_enum_impl@filesystem@std@@@std@@QEBAPEAU_Dir_enum_impl@filesystem@1@XZ
	??$?DU_Dir_enum_impl@filesystem@std@@$0A@@?$shared_ptr@U_Dir_enum_impl@filesystem@std@@@std@@QEBAAEAU_Dir_enum_impl@filesystem@1@XZ
	??$?HDU?$char_traits@D@std@@V?$allocator@D@1@@std@@YA?AV?$basic_string@DU?$char_traits@D@std@@V?$allocator@D@2@@0@$$QEAV10@0@Z
	??$?HDU?$char_traits@D@std@@V?$allocator@D@1@@std@@YA?AV?$basic_string@DU?$char_traits@D@std@@V?$allocator@D@2@@0@$$QEAV10@QEBD@Z
	??$?HDU?$char_traits@D@std@@V?$allocator@D@1@@std@@YA?AV?$basic_string@DU?$char_traits@D@std@@V?$allocator@D@2@@0@AEBV10@QEBD@Z
	??$?HDU?$char_traits@D@std@@V?$allocator@D@1@@std@@YA?AV?$basic_string@DU?$char_traits@D@std@@V?$allocator@D@2@@0@QEBD$$QEAV10@@Z
	??$?HDU?$char_traits@D@std@@V?$allocator@D@1@@std@@YA?AV?$basic_string@DU?$char_traits@D@std@@V?$allocator@D@2@@0@QEBDAEBV10@@Z
	??$?RAEAMAEAM@?$multiplies@X@std@@QEBAMAEAM0@Z
	??$?RAEAMM@?$plus@X@std@@QEBAMAEAM$$QEAM@Z
	??$?RAEBMAEBM@?$multiplies@X@std@@QEBAMAEBM0@Z
	??$?YV?$basic_string_view@DU?$char_traits@D@std@@@std@@$0A@@?$basic_string@DU?$char_traits@D@std@@V?$allocator@D@2@@std@@QEAAAEAV01@AEBV?$basic_string_view@DU?$char_traits@D@std@@@1@@Z
	??$?_0V?$basic_string_view@_WU?$char_traits@_W@std@@@std@@$0A@@path@filesystem@std@@QEAAAEAV012@AEBV?$basic_string_view@_WU?$char_traits@_W@std@@@2@@Z
	??$_Adl_verify_range@PEADPEAD@std@@YAXAEBQEAD0@Z
	??$_Adl_verify_range@PEBMPEBM@std@@YAXAEBQEBM0@Z
	??$_Adl_verify_range@PEB_WPEB_W@std@@YAXAEBQEB_W0@Z
	??$_Adl_verify_range@V?$_String_iterator@V?$_String_val@U?$_Simple_types@D@std@@@std@@@std@@V12@@std@@YAXAEBV?$_String_iterator@V?$_String_val@U?$_Simple_types@D@std@@@std@@@0@0@Z
	??$_Adl_verify_range@V?$_Vector_const_iterator@V?$_Vector_val@U?$_Simple_types@M@std@@@std@@@std@@V12@@std@@YAXAEBV?$_Vector_const_iterator@V?$_Vector_val@U?$_Simple_types@M@std@@@std@@@0@0@Z
	??$_Adl_verify_range@V?$_Vector_iterator@V?$_Vector_val@U?$_Simple_types@M@std@@@std@@@std@@V12@@std@@YAXAEBV?$_Vector_iterator@V?$_Vector_val@U?$_Simple_types@M@std@@@std@@@0@0@Z
	??$_Adl_verify_range@V?$_Vector_iterator@V?$_Vector_val@U?$_Simple_types@V?$basic_string@DU?$char_traits@D@std@@V?$allocator@D@2@@std@@@std@@@std@@@std@@V12@@std@@YAXAEBV?$_Vector_iterator@V?$_Vector_val@U?$_Simple_types@V?$basic_string@DU?$char_traits@D@std@@V?$allocator@D@2@@std@@@std@@@std@@@0@0@Z
	??$_Allocate@$0BA@U_Default_allocate_traits@std@@@std@@YAPEAX_K@Z
	??$_Allocate_at_least_helper@V?$allocator@D@std@@@std@@YAPEADAEAV?$allocator@D@0@AEA_K@Z
	??$_Allocate_at_least_helper@V?$allocator@H@std@@@std@@YAPEAHAEAV?$allocator@H@0@AEA_K@Z
	??$_Allocate_at_least_helper@V?$allocator@I@std@@@std@@YAPEAIAEAV?$allocator@I@0@AEA_K@Z
	??$_Allocate_at_least_helper@V?$allocator@M@std@@@std@@YAPEAMAEAV?$allocator@M@0@AEA_K@Z
	??$_Allocate_at_least_helper@V?$allocator@PEAD@std@@@std@@YAPEAPEADAEAV?$allocator@PEAD@0@AEA_K@Z
	??$_Allocate_at_least_helper@V?$allocator@PEBD@std@@@std@@YAPEAPEBDAEAV?$allocator@PEBD@0@AEA_K@Z
	??$_Allocate_at_least_helper@V?$allocator@UImageInput@@@std@@@std@@YAPEAUImageInput@@AEAV?$allocator@UImageInput@@@0@AEA_K@Z
	??$_Allocate_at_least_helper@V?$allocator@V?$Output@$$CBVNode@ov@@@ov@@@std@@@std@@YAPEAV?$Output@$$CBVNode@ov@@@ov@@AEAV?$allocator@V?$Output@$$CBVNode@ov@@@ov@@@0@AEA_K@Z
	??$_Allocate_at_least_helper@V?$allocator@V?$basic_string@DU?$char_traits@D@std@@V?$allocator@D@2@@std@@@std@@@std@@YAPEAV?$basic_string@DU?$char_traits@D@std@@V?$allocator@D@2@@0@AEAV?$allocator@V?$basic_string@DU?$char_traits@D@std@@V?$allocator@D@2@@std@@@0@AEA_K@Z
	??$_Allocate_at_least_helper@V?$allocator@V?$vector@DV?$allocator@D@std@@@std@@@std@@@std@@YAPEAV?$vector@DV?$allocator@D@std@@@0@AEAV?$allocator@V?$vector@DV?$allocator@D@std@@@std@@@0@AEA_K@Z
	??$_Allocate_at_least_helper@V?$allocator@V?$vector@HV?$allocator@H@std@@@std@@@std@@@std@@YAPEAV?$vector@HV?$allocator@H@std@@@0@AEAV?$allocator@V?$vector@HV?$allocator@H@std@@@std@@@0@AEA_K@Z
	??$_Allocate_at_least_helper@V?$allocator@V?$vector@MV?$allocator@M@std@@@std@@@std@@@std@@YAPEAV?$vector@MV?$allocator@M@std@@@0@AEAV?$allocator@V?$vector@MV?$allocator@M@std@@@std@@@0@AEA_K@Z
	??$_Allocate_at_least_helper@V?$allocator@_W@std@@@std@@YAPEA_WAEAV?$allocator@_W@0@AEA_K@Z
	??$_Allocate_for_capacity@$0A@@?$basic_string@DU?$char_traits@D@std@@V?$allocator@D@2@@std@@CAPEADAEAV?$allocator@D@1@AEA_K@Z
	??$_Allocate_for_capacity@$0A@@?$basic_string@_WU?$char_traits@_W@std@@V?$allocator@_W@2@@std@@CAPEA_WAEAV?$allocator@_W@1@AEA_K@Z
	??$_Allocate_manually_vector_aligned@U_Default_allocate_traits@std@@@std@@YAPEAX_K@Z
	??$_Allocators_equal@V?$allocator@D@std@@@std@@YA_NAEBV?$allocator@D@0@0@Z
	??$_Append@D@?$basic_string@DU?$char_traits@D@std@@V?$allocator@D@2@@std@@AEAAAEAV01@QEBD_K@Z
	??$_Append@_W@?$basic_string@_WU?$char_traits@_W@std@@V?$allocator@_W@2@@std@@AEAAAEAV01@QEB_W_K@Z
	??$_Assign@D@?$basic_string@DU?$char_traits@D@std@@V?$allocator@D@2@@std@@AEAAAEAV01@QEBD_K@Z
	??$_Assign@_W@?$basic_string@_WU?$char_traits@_W@std@@V?$allocator@_W@2@@std@@AEAAAEAV01@QEB_W_K@Z
	??$_Bit_cast@_KT_Addr_storage@error_category@std@@$0A@@std@@YA_KAEBT_Addr_storage@error_category@0@@Z
	??$_Bitmask_includes_all@W4__std_fs_stats_flags@@@std@@YA_NW4__std_fs_stats_flags@@0@Z
	??$_Bitmask_includes_any@W4__std_fs_file_attr@@@std@@YA_NW4__std_fs_file_attr@@0@Z
	??$_Bitmask_includes_any@W4__std_fs_stats_flags@@@std@@YA_NW4__std_fs_stats_flags@@0@Z
	??$_Bitmask_includes_any@W4directory_options@filesystem@std@@@std@@YA_NW4directory_options@filesystem@0@0@Z
	??$_Buyheadnode@V?$allocator@U?$_Tree_node@U?$pair@$$CBV?$basic_string@DU?$char_traits@D@std@@V?$allocator@D@2@@std@@VAny@ov@@@std@@PEAX@std@@@std@@@?$_Tree_node@U?$pair@$$CBV?$basic_string@DU?$char_traits@D@std@@V?$allocator@D@2@@std@@VAny@ov@@@std@@PEAX@std@@SAPEAU01@AEAV?$allocator@U?$_Tree_node@U?$pair@$$CBV?$basic_string@DU?$char_traits@D@std@@V?$allocator@D@2@@std@@VAny@ov@@@std@@PEAX@std@@@1@@Z
	??$_Construct@$00PEAD@?$basic_string@DU?$char_traits@D@std@@V?$allocator@D@2@@std@@AEAAXQEAD_K@Z
	??$_Construct@$00PEBD@?$basic_string@DU?$char_traits@D@std@@V?$allocator@D@2@@std@@AEAAXQEBD_K@Z
	??$_Construct@$00PEB_W@?$basic_string@_WU?$char_traits@_W@std@@V?$allocator@_W@2@@std@@AEAAXQEB_W_K@Z
	??$_Construct@$01PEBD@?$basic_string@DU?$char_traits@D@std@@V?$allocator@D@2@@std@@AEAAXQEBD_K@Z
	??$_Construct@$01PEB_W@?$basic_string@_WU?$char_traits@_W@std@@V?$allocator@_W@2@@std@@AEAAXQEB_W_K@Z
	??$_Construct_in_place@PEADAEAPEAD@std@@YAXAEAPEAD0@Z
	??$_Construct_in_place@PEADAEBQEAD@std@@YAXAEAPEADAEBQEAD@Z
	??$_Construct_in_place@PEAU?$_Tree_node@U?$pair@$$CBV?$basic_string@DU?$char_traits@D@std@@V?$allocator@D@2@@std@@VAny@ov@@@std@@PEAX@std@@AEBQEAU12@@std@@YAXAEAPEAU?$_Tree_node@U?$pair@$$CBV?$basic_string@DU?$char_traits@D@std@@V?$allocator@D@2@@std@@VAny@ov@@@std@@PEAX@0@AEBQEAU10@@Z
	??$_Construct_in_place@PEA_WAEAPEA_W@std@@YAXAEAPEA_W0@Z
	??$_Construct_in_place@PEA_WAEBQEA_W@std@@YAXAEAPEA_WAEBQEA_W@Z
	??$_Construct_in_place@PEBDPEBD@std@@YAXAEAPEBD$$QEAPEBD@Z
	??$_Construct_in_place@UImageInput@@U1@@std@@YAXAEAUImageInput@@$$QEAU1@@Z
	??$_Construct_in_place@U_Dir_enum_impl@filesystem@std@@U_Creator@123@AEBW4directory_options@23@@std@@YAXAEAU_Dir_enum_impl@filesystem@0@$$QEAU_Creator@120@AEBW4directory_options@20@@Z
	??$_Construct_in_place@V?$basic_string@DU?$char_traits@D@std@@V?$allocator@D@2@@std@@V12@@std@@YAXAEAV?$basic_string@DU?$char_traits@D@std@@V?$allocator@D@2@@0@$$QEAV10@@Z
	??$_Construct_in_place@V?$vector@MV?$allocator@M@std@@@std@@V12@@std@@YAXAEAV?$vector@MV?$allocator@M@std@@@0@$$QEAV10@@Z
	??$_Construct_n@$$V@?$vector@DV?$allocator@D@std@@@std@@AEAAX_K@Z
	??$_Construct_n@$$V@?$vector@PEADV?$allocator@PEAD@std@@@std@@AEAAX_K@Z
	??$_Construct_n@$$V@?$vector@V?$vector@DV?$allocator@D@std@@@std@@V?$allocator@V?$vector@DV?$allocator@D@std@@@std@@@2@@std@@AEAAX_K@Z
	??$_Construct_n@AEBH@?$vector@HV?$allocator@H@std@@@std@@AEAAX_KAEBH@Z
	??$_Construct_n@AEBI@?$vector@IV?$allocator@I@std@@@std@@AEAAX_KAEBI@Z
	??$_Construct_n@AEBM@?$vector@MV?$allocator@M@std@@@std@@AEAAX_KAEBM@Z
	??$_Construct_n@AEBQEAHAEBQEAH@?$vector@HV?$allocator@H@std@@@std@@AEAAX_KAEBQEAH1@Z
	??$_Construct_n@AEBQEAMAEBQEAM@?$vector@MV?$allocator@M@std@@@std@@AEAAX_KAEBQEAM1@Z
	??$_Construct_n@AEBQEAV?$Output@$$CBVNode@ov@@@ov@@AEBQEAV12@@?$vector@V?$Output@$$CBVNode@ov@@@ov@@V?$allocator@V?$Output@$$CBVNode@ov@@@ov@@@std@@@std@@AEAAX_KAEBQEAV?$Output@$$CBVNode@ov@@@ov@@1@Z
	??$_Construct_n@PEBMPEBM@?$vector@MV?$allocator@M@std@@@std@@AEAAX_K$$QEAPEBM1@Z
	??$_Construct_n@PEBV?$basic_string@DU?$char_traits@D@std@@V?$allocator@D@2@@std@@PEBV12@@?$vector@V?$basic_string@DU?$char_traits@D@std@@V?$allocator@D@2@@std@@V?$allocator@V?$basic_string@DU?$char_traits@D@std@@V?$allocator@D@2@@std@@@2@@std@@AEAAX_K$$QEAPEBV?$basic_string@DU?$char_traits@D@std@@V?$allocator@D@2@@1@1@Z
	??$_Construct_n@PEBV?$vector@MV?$allocator@M@std@@@std@@PEBV12@@?$vector@V?$vector@MV?$allocator@M@std@@@std@@V?$allocator@V?$vector@MV?$allocator@M@std@@@std@@@2@@std@@AEAAX_K$$QEAPEBV?$vector@MV?$allocator@M@std@@@1@1@Z
	??$_Convert_Source_to_wide@V?$basic_string@DU?$char_traits@D@std@@V?$allocator@D@2@@std@@U_Normal_conversion@filesystem@2@@filesystem@std@@YA?AV?$basic_string@_WU?$char_traits@_W@std@@V?$allocator@_W@2@@1@AEBV?$basic_string@DU?$char_traits@D@std@@V?$allocator@D@2@@1@U_Normal_conversion@01@@Z
	??$_Convert_Source_to_wide@V?$basic_string_view@_WU?$char_traits@_W@std@@@std@@U_Normal_conversion@filesystem@2@@filesystem@std@@YA?AV?$basic_string@_WU?$char_traits@_W@std@@V?$allocator@_W@2@@1@AEBV?$basic_string_view@_WU?$char_traits@_W@std@@@1@U_Normal_conversion@01@@Z
	??$_Convert_size@_K_K@std@@YA_K_K@Z
	??$_Convert_stringoid_to_wide@U_Normal_conversion@filesystem@std@@@filesystem@std@@YA?AV?$basic_string@_WU?$char_traits@_W@std@@V?$allocator@_W@2@@1@V?$basic_string_view@DU?$char_traits@D@std@@@1@U_Normal_conversion@01@@Z
	??$_Convert_stringoid_to_wide@U_Normal_conversion@filesystem@std@@@filesystem@std@@YA?AV?$basic_string@_WU?$char_traits@_W@std@@V?$allocator@_W@2@@1@V?$basic_string_view@_WU?$char_traits@_W@std@@@1@U_Normal_conversion@01@@Z
	??$_Convert_wide_to@U?$char_traits@D@std@@V?$allocator@D@2@D@filesystem@std@@YA?AV?$basic_string@DU?$char_traits@D@std@@V?$allocator@D@2@@1@V?$basic_string_view@_WU?$char_traits@_W@std@@@1@AEBV?$allocator@D@1@@Z
	??$_Convert_wide_to_narrow@U?$char_traits@D@std@@V?$allocator@D@2@@std@@YA?AV?$basic_string@DU?$char_traits@D@std@@V?$allocator@D@2@@0@W4__std_code_page@@V?$basic_string_view@_WU?$char_traits@_W@std@@@0@AEBV?$allocator@D@0@@Z
	??$_Convert_wide_to_narrow_replace_chars@U?$char_traits@D@std@@V?$allocator@D@2@@filesystem@std@@YA?AV?$basic_string@DU?$char_traits@D@std@@V?$allocator@D@2@@1@W4__std_code_page@@V?$basic_string_view@_WU?$char_traits@_W@std@@@1@AEBV?$allocator@D@1@@Z
	??$_Copy_construct_from@U_Dir_enum_impl@filesystem@std@@@?$_Ptr_base@U_Dir_enum_impl@filesystem@std@@@std@@IEAAXAEBV?$shared_ptr@U_Dir_enum_impl@filesystem@std@@@1@@Z
	??$_Copy_construct_from@VModel@ov@@@?$_Ptr_base@$$CBVModel@ov@@@std@@IEAAXAEBV?$shared_ptr@VModel@ov@@@1@@Z
	??$_Copy_memmove@PEADPEAD@std@@YAPEADPEAD00@Z
	??$_Copy_memmove@PEAHPEAH@std@@YAPEAHPEAH00@Z
	??$_Copy_memmove@PEAMPEAM@std@@YAPEAMPEAM00@Z
	??$_Copy_memmove@PEAPEBDPEAPEBD@std@@YAPEAPEBDPEAPEBD00@Z
	??$_Copy_memmove@PEBMPEAM@std@@YAPEAMPEBM0PEAM@Z
	??$_Copy_memmove_n@PEAHPEAH@std@@YAPEAHPEAH_K0@Z
	??$_Copy_memmove_tail@PEAD@std@@YAPEADQEBDQEAD_K2@Z
	??$_Copy_memmove_tail@PEAH@std@@YAPEAHQEBDQEAH_K2@Z
	??$_Copy_memmove_tail@PEAM@std@@YAPEAMQEBDQEAM_K2@Z
	??$_Copy_memmove_tail@PEAPEBD@std@@YAPEAPEBDQEBDQEAPEBD_K2@Z
	??$_Copy_unchecked@PEAMPEAMPEAM@std@@YAPEAMPEAM00@Z
	??$_Could_compare_equal_to_value_type@PEB_W_W@std@@YA_NAEB_W@Z
	??$_Deallocate@$0BA@@std@@YAXPEAX_K@Z
	??$_Destroy_in_place@PEAD@std@@YAXAEAPEAD@Z
	??$_Destroy_in_place@PEAU?$_Tree_node@U?$pair@$$CBV?$basic_string@DU?$char_traits@D@std@@V?$allocator@D@2@@std@@VAny@ov@@@std@@PEAX@std@@@std@@YAXAEAPEAU?$_Tree_node@U?$pair@$$CBV?$basic_string@DU?$char_traits@D@std@@V?$allocator@D@2@@std@@VAny@ov@@@std@@PEAX@0@@Z
	??$_Destroy_in_place@PEA_W@std@@YAXAEAPEA_W@Z
	??$_Destroy_in_place@U_Dir_enum_impl@filesystem@std@@@std@@YAXAEAU_Dir_enum_impl@filesystem@0@@Z
	??$_Destroy_range@V?$allocator@D@std@@@std@@YAXPEADQEADAEAV?$allocator@D@0@@Z
	??$_Destroy_range@V?$allocator@H@std@@@std@@YAXPEAHQEAHAEAV?$allocator@H@0@@Z
	??$_Destroy_range@V?$allocator@I@std@@@std@@YAXPEAIQEAIAEAV?$allocator@I@0@@Z
	??$_Destroy_range@V?$allocator@M@std@@@std@@YAXPEAMQEAMAEAV?$allocator@M@0@@Z
	??$_Destroy_range@V?$allocator@PEAD@std@@@std@@YAXPEAPEADQEAPEADAEAV?$allocator@PEAD@0@@Z
	??$_Destroy_range@V?$allocator@PEBD@std@@@std@@YAXPEAPEBDQEAPEBDAEAV?$allocator@PEBD@0@@Z
	??$_Destroy_range@V?$allocator@UImageInput@@@std@@@std@@YAXPEAUImageInput@@QEAU1@AEAV?$allocator@UImageInput@@@0@@Z
	??$_Destroy_range@V?$allocator@V?$Output@$$CBVNode@ov@@@ov@@@std@@@std@@YAXPEAV?$Output@$$CBVNode@ov@@@ov@@QEAV12@AEAV?$allocator@V?$Output@$$CBVNode@ov@@@ov@@@0@@Z
	??$_Destroy_range@V?$allocator@V?$basic_string@DU?$char_traits@D@std@@V?$allocator@D@2@@std@@@std@@@std@@YAXPEAV?$basic_string@DU?$char_traits@D@std@@V?$allocator@D@2@@0@QEAV10@AEAV?$allocator@V?$basic_string@DU?$char_traits@D@std@@V?$allocator@D@2@@std@@@0@@Z
	??$_Destroy_range@V?$allocator@V?$vector@DV?$allocator@D@std@@@std@@@std@@@std@@YAXPEAV?$vector@DV?$allocator@D@std@@@0@QEAV10@AEAV?$allocator@V?$vector@DV?$allocator@D@std@@@std@@@0@@Z
	??$_Destroy_range@V?$allocator@V?$vector@HV?$allocator@H@std@@@std@@@std@@@std@@YAXPEAV?$vector@HV?$allocator@H@std@@@0@QEAV10@AEAV?$allocator@V?$vector@HV?$allocator@H@std@@@std@@@0@@Z
	??$_Destroy_range@V?$allocator@V?$vector@MV?$allocator@M@std@@@std@@@std@@@std@@YAXPEAV?$vector@MV?$allocator@M@std@@@0@QEAV10@AEAV?$allocator@V?$vector@MV?$allocator@M@std@@@std@@@0@@Z
	??$_Emplace_back@$$V@?$_Uninitialized_backout_al@V?$allocator@D@std@@@std@@QEAAXXZ
	??$_Emplace_back@$$V@?$_Uninitialized_backout_al@V?$allocator@PEAD@std@@@std@@QEAAXXZ
	??$_Emplace_back@$$V@?$_Uninitialized_backout_al@V?$allocator@V?$vector@DV?$allocator@D@std@@@std@@@std@@@std@@QEAAXXZ
	??$_Emplace_back@AEAH@?$_Uninitialized_backout_al@V?$allocator@H@std@@@std@@QEAAXAEAH@Z
	??$_Emplace_back@AEAM@?$_Uninitialized_backout_al@V?$allocator@M@std@@@std@@QEAAXAEAM@Z
	??$_Emplace_back@AEAV?$Output@$$CBVNode@ov@@@ov@@@?$_Uninitialized_backout_al@V?$allocator@V?$Output@$$CBVNode@ov@@@ov@@@std@@@std@@QEAAXAEAV?$Output@$$CBVNode@ov@@@ov@@@Z
	??$_Emplace_back@AEBH@?$_Uninitialized_backout_al@V?$allocator@H@std@@@std@@QEAAXAEBH@Z
	??$_Emplace_back@AEBI@?$_Uninitialized_backout_al@V?$allocator@I@std@@@std@@QEAAXAEBI@Z
	??$_Emplace_back@AEBM@?$_Uninitialized_backout_al@V?$allocator@M@std@@@std@@QEAAXAEBM@Z
	??$_Emplace_back@AEBV?$basic_string@DU?$char_traits@D@std@@V?$allocator@D@2@@std@@@?$_Uninitialized_backout_al@V?$allocator@V?$basic_string@DU?$char_traits@D@std@@V?$allocator@D@2@@std@@@std@@@std@@QEAAXAEBV?$basic_string@DU?$char_traits@D@std@@V?$allocator@D@2@@1@@Z
	??$_Emplace_back@AEBV?$vector@MV?$allocator@M@std@@@std@@@?$_Uninitialized_backout_al@V?$allocator@V?$vector@MV?$allocator@M@std@@@std@@@std@@@std@@QEAAXAEBV?$vector@MV?$allocator@M@std@@@1@@Z
	??$_Emplace_back@D@?$_Uninitialized_backout_al@V?$allocator@D@std@@@std@@QEAAX$$QEAD@Z
	??$_Emplace_back@H@?$_Uninitialized_backout_al@V?$allocator@H@std@@@std@@QEAAX$$QEAH@Z
	??$_Emplace_back@M@?$_Uninitialized_backout_al@V?$allocator@M@std@@@std@@QEAAX$$QEAM@Z
	??$_Emplace_back@PEBD@?$_Uninitialized_backout_al@V?$allocator@PEBD@std@@@std@@QEAAX$$QEAPEBD@Z
	??$_Emplace_back@UImageInput@@@?$_Uninitialized_backout_al@V?$allocator@UImageInput@@@std@@@std@@QEAAX$$QEAUImageInput@@@Z
	??$_Emplace_back@V?$basic_string@DU?$char_traits@D@std@@V?$allocator@D@2@@std@@@?$_Uninitialized_backout_al@V?$allocator@V?$basic_string@DU?$char_traits@D@std@@V?$allocator@D@2@@std@@@std@@@std@@QEAAX$$QEAV?$basic_string@DU?$char_traits@D@std@@V?$allocator@D@2@@1@@Z
	??$_Emplace_back@V?$vector@HV?$allocator@H@std@@@std@@@?$_Uninitialized_backout_al@V?$allocator@V?$vector@HV?$allocator@H@std@@@std@@@std@@@std@@QEAAX$$QEAV?$vector@HV?$allocator@H@std@@@1@@Z
	??$_Emplace_back@V?$vector@MV?$allocator@M@std@@@std@@@?$_Uninitialized_backout_al@V?$allocator@V?$vector@MV?$allocator@M@std@@@std@@@std@@@std@@QEAAX$$QEAV?$vector@MV?$allocator@M@std@@@1@@Z
	??$_Emplace_back_with_unused_capacity@AEBV?$basic_string@DU?$char_traits@D@std@@V?$allocator@D@2@@std@@@?$vector@V?$basic_string@DU?$char_traits@D@std@@V?$allocator@D@2@@std@@V?$allocator@V?$basic_string@DU?$char_traits@D@std@@V?$allocator@D@2@@std@@@2@@std@@AEAAAEAV?$basic_string@DU?$char_traits@D@std@@V?$allocator@D@2@@1@AEBV21@@Z
	??$_Emplace_back_with_unused_capacity@AEBV?$vector@HV?$allocator@H@std@@@std@@@?$vector@V?$vector@HV?$allocator@H@std@@@std@@V?$allocator@V?$vector@HV?$allocator@H@std@@@std@@@2@@std@@AEAAAEAV?$vector@HV?$allocator@H@std@@@1@AEBV21@@Z
	??$_Emplace_back_with_unused_capacity@AEBV?$vector@MV?$allocator@M@std@@@std@@@?$vector@V?$vector@MV?$allocator@M@std@@@std@@V?$allocator@V?$vector@MV?$allocator@M@std@@@std@@@2@@std@@AEAAAEAV?$vector@MV?$allocator@M@std@@@1@AEBV21@@Z
	??$_Emplace_back_with_unused_capacity@PEBD@?$vector@PEBDV?$allocator@PEBD@std@@@std@@AEAAAEAPEBD$$QEAPEBD@Z
	??$_Emplace_back_with_unused_capacity@UImageInput@@@?$vector@UImageInput@@V?$allocator@UImageInput@@@std@@@std@@AEAAAEAUImageInput@@$$QEAU2@@Z
	??$_Emplace_back_with_unused_capacity@V?$basic_string@DU?$char_traits@D@std@@V?$allocator@D@2@@std@@@?$vector@V?$basic_string@DU?$char_traits@D@std@@V?$allocator@D@2@@std@@V?$allocator@V?$basic_string@DU?$char_traits@D@std@@V?$allocator@D@2@@std@@@2@@std@@AEAAAEAV?$basic_string@DU?$char_traits@D@std@@V?$allocator@D@2@@1@$$QEAV21@@Z
	??$_Emplace_back_with_unused_capacity@V?$vector@MV?$allocator@M@std@@@std@@@?$vector@V?$vector@MV?$allocator@M@std@@@std@@V?$allocator@V?$vector@MV?$allocator@M@std@@@std@@@2@@std@@AEAAAEAV?$vector@MV?$allocator@M@std@@@1@$$QEAV21@@Z
	??$_Emplace_one_at_back@AEBV?$basic_string@DU?$char_traits@D@std@@V?$allocator@D@2@@std@@@?$vector@V?$basic_string@DU?$char_traits@D@std@@V?$allocator@D@2@@std@@V?$allocator@V?$basic_string@DU?$char_traits@D@std@@V?$allocator@D@2@@std@@@2@@std@@AEAAAEAV?$basic_string@DU?$char_traits@D@std@@V?$allocator@D@2@@1@AEBV21@@Z
	??$_Emplace_one_at_back@AEBV?$vector@HV?$allocator@H@std@@@std@@@?$vector@V?$vector@HV?$allocator@H@std@@@std@@V?$allocator@V?$vector@HV?$allocator@H@std@@@std@@@2@@std@@AEAAAEAV?$vector@HV?$allocator@H@std@@@1@AEBV21@@Z
	??$_Emplace_one_at_back@AEBV?$vector@MV?$allocator@M@std@@@std@@@?$vector@V?$vector@MV?$allocator@M@std@@@std@@V?$allocator@V?$vector@MV?$allocator@M@std@@@std@@@2@@std@@AEAAAEAV?$vector@MV?$allocator@M@std@@@1@AEBV21@@Z
	??$_Emplace_one_at_back@PEBD@?$vector@PEBDV?$allocator@PEBD@std@@@std@@AEAAAEAPEBD$$QEAPEBD@Z
	??$_Emplace_one_at_back@UImageInput@@@?$vector@UImageInput@@V?$allocator@UImageInput@@@std@@@std@@AEAAAEAUImageInput@@$$QEAU2@@Z
	??$_Emplace_one_at_back@V?$basic_string@DU?$char_traits@D@std@@V?$allocator@D@2@@std@@@?$vector@V?$basic_string@DU?$char_traits@D@std@@V?$allocator@D@2@@std@@V?$allocator@V?$basic_string@DU?$char_traits@D@std@@V?$allocator@D@2@@std@@@2@@std@@AEAAAEAV?$basic_string@DU?$char_traits@D@std@@V?$allocator@D@2@@1@$$QEAV21@@Z
	??$_Emplace_one_at_back@V?$vector@MV?$allocator@M@std@@@std@@@?$vector@V?$vector@MV?$allocator@M@std@@@std@@V?$allocator@V?$vector@MV?$allocator@M@std@@@std@@@2@@std@@AEAAAEAV?$vector@MV?$allocator@M@std@@@1@$$QEAV21@@Z
	??$_Emplace_reallocate@AEBV?$basic_string@DU?$char_traits@D@std@@V?$allocator@D@2@@std@@@?$vector@V?$basic_string@DU?$char_traits@D@std@@V?$allocator@D@2@@std@@V?$allocator@V?$basic_string@DU?$char_traits@D@std@@V?$allocator@D@2@@std@@@2@@std@@AEAAPEAV?$basic_string@DU?$char_traits@D@std@@V?$allocator@D@2@@1@QEAV21@AEBV21@@Z
	??$_Emplace_reallocate@AEBV?$vector@HV?$allocator@H@std@@@std@@@?$vector@V?$vector@HV?$allocator@H@std@@@std@@V?$allocator@V?$vector@HV?$allocator@H@std@@@std@@@2@@std@@AEAAPEAV?$vector@HV?$allocator@H@std@@@1@QEAV21@AEBV21@@Z
	??$_Emplace_reallocate@AEBV?$vector@MV?$allocator@M@std@@@std@@@?$vector@V?$vector@MV?$allocator@M@std@@@std@@V?$allocator@V?$vector@MV?$allocator@M@std@@@std@@@2@@std@@AEAAPEAV?$vector@MV?$allocator@M@std@@@1@QEAV21@AEBV21@@Z
	??$_Emplace_reallocate@PEBD@?$vector@PEBDV?$allocator@PEBD@std@@@std@@AEAAPEAPEBDQEAPEBD$$QEAPEBD@Z
	??$_Emplace_reallocate@UImageInput@@@?$vector@UImageInput@@V?$allocator@UImageInput@@@std@@@std@@AEAAPEAUImageInput@@QEAU2@$$QEAU2@@Z
	??$_Emplace_reallocate@V?$basic_string@DU?$char_traits@D@std@@V?$allocator@D@2@@std@@@?$vector@V?$basic_string@DU?$char_traits@D@std@@V?$allocator@D@2@@std@@V?$allocator@V?$basic_string@DU?$char_traits@D@std@@V?$allocator@D@2@@std@@@2@@std@@AEAAPEAV?$basic_string@DU?$char_traits@D@std@@V?$allocator@D@2@@1@QEAV21@$$QEAV21@@Z
	??$_Emplace_reallocate@V?$vector@MV?$allocator@M@std@@@std@@@?$vector@V?$vector@MV?$allocator@M@std@@@std@@V?$allocator@V?$vector@MV?$allocator@M@std@@@std@@@2@@std@@AEAAPEAV?$vector@MV?$allocator@M@std@@@1@QEAV21@$$QEAV21@@Z
	??$_Erase_head@V?$allocator@U?$_Tree_node@U?$pair@$$CBV?$basic_string@DU?$char_traits@D@std@@V?$allocator@D@2@@std@@VAny@ov@@@std@@PEAX@std@@@std@@@?$_Tree_val@U?$_Tree_simple_types@U?$pair@$$CBV?$basic_string@DU?$char_traits@D@std@@V?$allocator@D@2@@std@@VAny@ov@@@std@@@std@@@std@@QEAAXAEAV?$allocator@U?$_Tree_node@U?$pair@$$CBV?$basic_string@DU?$char_traits@D@std@@V?$allocator@D@2@@std@@VAny@ov@@@std@@PEAX@std@@@1@@Z
	??$_Erase_tree@V?$allocator@U?$_Tree_node@U?$pair@$$CBV?$basic_string@DU?$char_traits@D@std@@V?$allocator@D@2@@std@@VAny@ov@@@std@@PEAX@std@@@std@@@?$_Tree_val@U?$_Tree_simple_types@U?$pair@$$CBV?$basic_string@DU?$char_traits@D@std@@V?$allocator@D@2@@std@@VAny@ov@@@std@@@std@@@std@@QEAAXAEAV?$allocator@U?$_Tree_node@U?$pair@$$CBV?$basic_string@DU?$char_traits@D@std@@V?$allocator@D@2@@std@@VAny@ov@@@std@@PEAX@std@@@1@PEAU?$_Tree_node@U?$pair@$$CBV?$basic_string@DU?$char_traits@D@std@@V?$allocator@D@2@@std@@VAny@ov@@@std@@PEAX@1@@Z
	??$_Fill_zero_memset@PEAH@std@@YAXPEAH_K@Z
	??$_Fill_zero_memset@PEAI@std@@YAXPEAI_K@Z
	??$_Fill_zero_memset@PEAM@std@@YAXPEAM_K@Z
	??$_Find_unchecked@PEAV?$basic_string@DU?$char_traits@D@std@@V?$allocator@D@2@@std@@V12@@std@@YAPEAV?$basic_string@DU?$char_traits@D@std@@V?$allocator@D@2@@0@PEAV10@QEAV10@AEBV10@@Z
	??$_Find_unchecked@PEB_W_W@std@@YAPEB_WPEB_WQEB_WAEB_W@Z
	??$_Find_vectorized@$$CB_W_W@std@@YAPEB_WQEB_W0_W@Z
	??$_Freenode0@V?$allocator@U?$_Tree_node@U?$pair@$$CBV?$basic_string@DU?$char_traits@D@std@@V?$allocator@D@2@@std@@VAny@ov@@@std@@PEAX@std@@@std@@@?$_Tree_node@U?$pair@$$CBV?$basic_string@DU?$char_traits@D@std@@V?$allocator@D@2@@std@@VAny@ov@@@std@@PEAX@std@@SAXAEAV?$allocator@U?$_Tree_node@U?$pair@$$CBV?$basic_string@DU?$char_traits@D@std@@V?$allocator@D@2@@std@@VAny@ov@@@std@@PEAX@std@@@1@PEAU01@@Z
	??$_Freenode@V?$allocator@U?$_Tree_node@U?$pair@$$CBV?$basic_string@DU?$char_traits@D@std@@V?$allocator@D@2@@std@@VAny@ov@@@std@@PEAX@std@@@std@@@?$_Tree_node@U?$pair@$$CBV?$basic_string@DU?$char_traits@D@std@@V?$allocator@D@2@@std@@VAny@ov@@@std@@PEAX@std@@SAXAEAV?$allocator@U?$_Tree_node@U?$pair@$$CBV?$basic_string@DU?$char_traits@D@std@@V?$allocator@D@2@@std@@VAny@ov@@@std@@PEAX@std@@@1@PEAU01@@Z
	??$_Get_proxy_allocator@V?$allocator@D@std@@@std@@YA?AU_Fake_allocator@0@AEBV?$allocator@D@0@@Z
	??$_Get_proxy_allocator@V?$allocator@H@std@@@std@@YA?AU_Fake_allocator@0@AEBV?$allocator@H@0@@Z
	??$_Get_proxy_allocator@V?$allocator@I@std@@@std@@YA?AU_Fake_allocator@0@AEBV?$allocator@I@0@@Z
	??$_Get_proxy_allocator@V?$allocator@M@std@@@std@@YA?AU_Fake_allocator@0@AEBV?$allocator@M@0@@Z
	??$_Get_proxy_allocator@V?$allocator@PEAD@std@@@std@@YA?AU_Fake_allocator@0@AEBV?$allocator@PEAD@0@@Z
	??$_Get_proxy_allocator@V?$allocator@PEBD@std@@@std@@YA?AU_Fake_allocator@0@AEBV?$allocator@PEBD@0@@Z
	??$_Get_proxy_allocator@V?$allocator@U?$_Tree_node@U?$pair@$$CBV?$basic_string@DU?$char_traits@D@std@@V?$allocator@D@2@@std@@VAny@ov@@@std@@PEAX@std@@@std@@@std@@YA?AU_Fake_allocator@0@AEBV?$allocator@U?$_Tree_node@U?$pair@$$CBV?$basic_string@DU?$char_traits@D@std@@V?$allocator@D@2@@std@@VAny@ov@@@std@@PEAX@std@@@0@@Z
	??$_Get_proxy_allocator@V?$allocator@UImageInput@@@std@@@std@@YA?AU_Fake_allocator@0@AEBV?$allocator@UImageInput@@@0@@Z
	??$_Get_proxy_allocator@V?$allocator@V?$Output@$$CBVNode@ov@@@ov@@@std@@@std@@YA?AU_Fake_allocator@0@AEBV?$allocator@V?$Output@$$CBVNode@ov@@@ov@@@0@@Z
	??$_Get_proxy_allocator@V?$allocator@V?$basic_string@DU?$char_traits@D@std@@V?$allocator@D@2@@std@@@std@@@std@@YA?AU_Fake_allocator@0@AEBV?$allocator@V?$basic_string@DU?$char_traits@D@std@@V?$allocator@D@2@@std@@@0@@Z
	??$_Get_proxy_allocator@V?$allocator@V?$vector@DV?$allocator@D@std@@@std@@@std@@@std@@YA?AU_Fake_allocator@0@AEBV?$allocator@V?$vector@DV?$allocator@D@std@@@std@@@0@@Z
	??$_Get_proxy_allocator@V?$allocator@V?$vector@HV?$allocator@H@std@@@std@@@std@@@std@@YA?AU_Fake_allocator@0@AEBV?$allocator@V?$vector@HV?$allocator@H@std@@@std@@@0@@Z
	??$_Get_proxy_allocator@V?$allocator@V?$vector@MV?$allocator@M@std@@@std@@@std@@@std@@YA?AU_Fake_allocator@0@AEBV?$allocator@V?$vector@MV?$allocator@M@std@@@std@@@0@@Z
	??$_Get_proxy_allocator@V?$allocator@_W@std@@@std@@YA?AU_Fake_allocator@0@AEBV?$allocator@_W@0@@Z
	??$_Get_size_of_n@$00@std@@YA_K_K@Z
	??$_Get_size_of_n@$01@std@@YA_K_K@Z
	??$_Get_size_of_n@$03@std@@YA_K_K@Z
	??$_Get_size_of_n@$07@std@@YA_K_K@Z
	??$_Get_size_of_n@$0BI@@std@@YA_K_K@Z
	??$_Get_size_of_n@$0CA@@std@@YA_K_K@Z
	??$_Get_size_of_n@$0HA@@std@@YA_K_K@Z
	??$_Get_unwrapped@AEAPEAD@std@@YA?A_TAEAPEAD@Z
	??$_Get_unwrapped@AEAPEBM@std@@YA?A_TAEAPEBM@Z
	??$_Get_unwrapped@AEAPEB_W@std@@YA?A_TAEAPEB_W@Z
	??$_Get_unwrapped@AEAV?$_Vector_const_iterator@V?$_Vector_val@U?$_Simple_types@M@std@@@std@@@std@@@std@@YA?A_TAEAV?$_Vector_const_iterator@V?$_Vector_val@U?$_Simple_types@M@std@@@std@@@0@@Z
	??$_Get_unwrapped@AEAV?$_Vector_iterator@V?$_Vector_val@U?$_Simple_types@M@std@@@std@@@std@@@std@@YA?A_TAEAV?$_Vector_iterator@V?$_Vector_val@U?$_Simple_types@M@std@@@std@@@0@@Z
	??$_Get_unwrapped@AEAV?$_Vector_iterator@V?$_Vector_val@U?$_Simple_types@V?$basic_string@DU?$char_traits@D@std@@V?$allocator@D@2@@std@@@std@@@std@@@std@@@std@@YA?A_TAEAV?$_Vector_iterator@V?$_Vector_val@U?$_Simple_types@V?$basic_string@DU?$char_traits@D@std@@V?$allocator@D@2@@std@@@std@@@std@@@0@@Z
	??$_Get_unwrapped@AEBQEAD@std@@YA?A_TAEBQEAD@Z
	??$_Get_unwrapped@AEBQEAH@std@@YA?A_TAEBQEAH@Z
	??$_Get_unwrapped@AEBQEAM@std@@YA?A_TAEBQEAM@Z
	??$_Get_unwrapped@AEBQEAPEBD@std@@YA?A_TAEBQEAPEBD@Z
	??$_Get_unwrapped@AEBQEAUImageInput@@@std@@YA?A_TAEBQEAUImageInput@@@Z
	??$_Get_unwrapped@AEBQEAV?$basic_string@DU?$char_traits@D@std@@V?$allocator@D@2@@std@@@std@@YA?A_TAEBQEAV?$basic_string@DU?$char_traits@D@std@@V?$allocator@D@2@@0@@Z
	??$_Get_unwrapped@AEBQEAV?$vector@HV?$allocator@H@std@@@std@@@std@@YA?A_TAEBQEAV?$vector@HV?$allocator@H@std@@@0@@Z
	??$_Get_unwrapped@AEBQEAV?$vector@MV?$allocator@M@std@@@std@@@std@@YA?A_TAEBQEAV?$vector@MV?$allocator@M@std@@@0@@Z
	??$_Get_unwrapped@AEBQEB_W@std@@YA?A_TAEBQEB_W@Z
	??$_Get_unwrapped@AEBV?$_String_iterator@V?$_String_val@U?$_Simple_types@D@std@@@std@@@std@@@std@@YA?A_TAEBV?$_String_iterator@V?$_String_val@U?$_Simple_types@D@std@@@std@@@0@@Z
	??$_Get_unwrapped@AEBV?$_Vector_iterator@V?$_Vector_val@U?$_Simple_types@V?$basic_string@DU?$char_traits@D@std@@V?$allocator@D@2@@std@@@std@@@std@@@std@@@std@@YA?A_TAEBV?$_Vector_iterator@V?$_Vector_val@U?$_Simple_types@V?$basic_string@DU?$char_traits@D@std@@V?$allocator@D@2@@std@@@std@@@std@@@0@@Z
	??$_Get_unwrapped@PEAH@std@@YA?A_T$$QEAPEAH@Z
	??$_Get_unwrapped@PEAM@std@@YA?A_T$$QEAPEAM@Z
	??$_Get_unwrapped@PEAV?$Output@$$CBVNode@ov@@@ov@@@std@@YA?A_T$$QEAPEAV?$Output@$$CBVNode@ov@@@ov@@@Z
	??$_Get_unwrapped@PEBM@std@@YA?A_T$$QEAPEBM@Z
	??$_Get_unwrapped@PEBV?$basic_string@DU?$char_traits@D@std@@V?$allocator@D@2@@std@@@std@@YA?A_T$$QEAPEBV?$basic_string@DU?$char_traits@D@std@@V?$allocator@D@2@@0@@Z
	??$_Get_unwrapped@PEBV?$vector@MV?$allocator@M@std@@@std@@@std@@YA?A_T$$QEAPEBV?$vector@MV?$allocator@M@std@@@0@@Z
	??$_Get_unwrapped_n@AEAPEAH_K@std@@YA?A_TAEAPEAH_K@Z
	??$_Get_unwrapped_n@AEAV?$_String_iterator@V?$_String_val@U?$_Simple_types@D@std@@@std@@@std@@_J@std@@YA?A_TAEAV?$_String_iterator@V?$_String_val@U?$_Simple_types@D@std@@@std@@@0@_J@Z
	??$_Get_unwrapped_n@AEAV?$_Vector_const_iterator@V?$_Vector_val@U?$_Simple_types@M@std@@@std@@@std@@_J@std@@YA?A_TAEAV?$_Vector_const_iterator@V?$_Vector_val@U?$_Simple_types@M@std@@@std@@@0@_J@Z
	??$_Get_unwrapped_n@AEAV?$_Vector_iterator@V?$_Vector_val@U?$_Simple_types@H@std@@@std@@@std@@_K@std@@YA?A_TAEAV?$_Vector_iterator@V?$_Vector_val@U?$_Simple_types@H@std@@@std@@@0@_K@Z
	??$_Get_unwrapped_n@AEAV?$_Vector_iterator@V?$_Vector_val@U?$_Simple_types@M@std@@@std@@@std@@_J@std@@YA?A_TAEAV?$_Vector_iterator@V?$_Vector_val@U?$_Simple_types@M@std@@@std@@@0@_J@Z
	??$_Get_unwrapped_n@PEAM_J@std@@YA?A_T$$QEAPEAM_J@Z
	??$_Getvals@_W@?$time_get@DV?$istreambuf_iterator@DU?$char_traits@D@std@@@std@@@std@@IEAAX_WAEBV_Locinfo@1@@Z
	??$_Getvals@_W@?$time_get@_WV?$istreambuf_iterator@_WU?$char_traits@_W@std@@@std@@@std@@IEAAX_WAEBV_Locinfo@1@@Z
	??$_Idl_distance@V?$_String_iterator@V?$_String_val@U?$_Simple_types@D@std@@@std@@@std@@PEAD@std@@YA?A_PAEBQEAD0@Z
	??$_Idl_distance@V?$_Vector_const_iterator@V?$_Vector_val@U?$_Simple_types@M@std@@@std@@@std@@PEBM@std@@YA?A_PAEBQEBM0@Z
	??$_Idl_distance@V?$_Vector_iterator@V?$_Vector_val@U?$_Simple_types@M@std@@@std@@@std@@PEAM@std@@YA?A_PAEBQEAM0@Z
	??$_Immortalize_memcpy_image@V_Generic_error_category@std@@@std@@YAAEBV_Generic_error_category@0@XZ
	??$_Immortalize_memcpy_image@V_System_error_category@std@@@std@@YAAEBV_System_error_category@0@XZ
	??$_In_range@H_K@std@@YA_N_K@Z
	??$_Initialize_dir_enum@U_Dir_enum_impl@filesystem@std@@@_Dir_enum_impl@filesystem@std@@SA?AW4__std_win_error@@AEAV?$shared_ptr@U_Dir_enum_impl@filesystem@std@@@2@AEBVpath@12@W4directory_options@12@@Z
	??$_Insert@D@?$basic_string@DU?$char_traits@D@std@@V?$allocator@D@2@@std@@AEAAAEAV01@_KQEBD0@Z
	??$_Insert_string@DU?$char_traits@D@std@@_K@std@@YAAEAV?$basic_ostream@DU?$char_traits@D@std@@@0@AEAV10@QEBD_K@Z
	??$_Integral_to_string@DH@std@@YA?AV?$basic_string@DU?$char_traits@D@std@@V?$allocator@D@2@@0@H@Z
	??$_Is_all_bits_zero@H@std@@YA_NAEBH@Z
	??$_Is_all_bits_zero@I@std@@YA_NAEBI@Z
	??$_Is_all_bits_zero@M@std@@YA_NAEBM@Z
	??$_Max_limit@_J@std@@YA_JXZ
	??$_Move_construct_from@U_Dir_enum_impl@filesystem@std@@@?$_Ptr_base@U_Dir_enum_impl@filesystem@std@@@std@@IEAAX$$QEAV01@@Z
	??$_Pocca@V?$allocator@_W@std@@@std@@YAXAEAV?$allocator@_W@0@AEBV10@@Z
	??$_Pocma@V?$allocator@D@std@@@std@@YAXAEAV?$allocator@D@0@0@Z
	??$_Pocma@V?$allocator@_W@std@@@std@@YAXAEAV?$allocator@_W@0@0@Z
	??$_Reallocate_for@V<lambda_9fb449e582d5374755335d8f6d90ae34>@@PEB_W@?$basic_string@_WU?$char_traits@_W@std@@V?$allocator@_W@2@@std@@AEAAAEAV01@_KV<lambda_9fb449e582d5374755335d8f6d90ae34>@@PEB_W@Z
	??$_Reallocate_for@V<lambda_a132b9f505f015b07a26cb4edca31da2>@@PEBD@?$basic_string@DU?$char_traits@D@std@@V?$allocator@D@2@@std@@AEAAAEAV01@_KV<lambda_a132b9f505f015b07a26cb4edca31da2>@@PEBD@Z
	??$_Reallocate_grow_by@V<lambda_25953b27f3c43b57ba59f021c7f225c5>@@_W@?$basic_string@_WU?$char_traits@_W@std@@V?$allocator@_W@2@@std@@AEAAAEAV01@_KV<lambda_25953b27f3c43b57ba59f021c7f225c5>@@_W@Z
	??$_Reallocate_grow_by@V<lambda_319d5e083f45f90dcdce5dce53cbb275>@@D@?$basic_string@DU?$char_traits@D@std@@V?$allocator@D@2@@std@@AEAAAEAV01@_KV<lambda_319d5e083f45f90dcdce5dce53cbb275>@@D@Z
	??$_Reallocate_grow_by@V<lambda_6e107f859707de1a71dcca60860853b1>@@PEBD_K@?$basic_string@DU?$char_traits@D@std@@V?$allocator@D@2@@std@@AEAAAEAV01@_KV<lambda_6e107f859707de1a71dcca60860853b1>@@PEBD_K@Z
	??$_Reallocate_grow_by@V<lambda_9013ee9e23efe4882b67eff5b0ecf103>@@$$V@?$basic_string@DU?$char_traits@D@std@@V?$allocator@D@2@@std@@AEAAAEAV01@_KV<lambda_9013ee9e23efe4882b67eff5b0ecf103>@@@Z
	??$_Reallocate_grow_by@V<lambda_942448a5eca1a40cdf35e7a483deabf2>@@PEB_W_K@?$basic_string@_WU?$char_traits@_W@std@@V?$allocator@_W@2@@std@@AEAAAEAV01@_KV<lambda_942448a5eca1a40cdf35e7a483deabf2>@@PEB_W_K@Z
	??$_Reallocate_grow_by@V<lambda_a3050a43f3157934f354774ab3dd2e02>@@_K_W@?$basic_string@_WU?$char_traits@_W@std@@V?$allocator@_W@2@@std@@AEAAAEAV01@_KV<lambda_a3050a43f3157934f354774ab3dd2e02>@@_K_W@Z
	??$_Reallocate_grow_by@V<lambda_e1befb086ad3257e3f042a63030725f7>@@_KD@?$basic_string@DU?$char_traits@D@std@@V?$allocator@D@2@@std@@AEAAAEAV01@_KV<lambda_e1befb086ad3257e3f042a63030725f7>@@_KD@Z
	??$_Reallocate_grow_by@V<lambda_e9b99a188f9a316a73b83d1e72db26de>@@_KPEBD_K@?$basic_string@DU?$char_traits@D@std@@V?$allocator@D@2@@std@@AEAAAEAV01@_KV<lambda_e9b99a188f9a316a73b83d1e72db26de>@@_KPEBD2@Z
	??$_Refancy@PEAD$0A@@std@@YAPEADPEAD@Z
	??$_Refancy_maybe_null@PEAV?$basic_string@DU?$char_traits@D@std@@V?$allocator@D@2@@std@@$0A@@std@@YAPEAV?$basic_string@DU?$char_traits@D@std@@V?$allocator@D@2@@0@PEAV10@@Z
	??$_Refancy_maybe_null@PEBD$0A@@std@@YAPEBDPEBD@Z
	??$_Resize@H@?$vector@HV?$allocator@H@std@@@std@@AEAAX_KAEBH@Z
	??$_Resize@M@?$vector@MV?$allocator@M@std@@@std@@AEAAX_KAEBM@Z
	??$_Resize@U_Value_init_tag@std@@@?$vector@DV?$allocator@D@std@@@std@@AEAAX_KAEBU_Value_init_tag@1@@Z
	??$_Resize_reallocate@H@?$vector@HV?$allocator@H@std@@@std@@AEAAX_KAEBH@Z
	??$_Resize_reallocate@M@?$vector@MV?$allocator@M@std@@@std@@AEAAX_KAEBM@Z
	??$_Resize_reallocate@U_Value_init_tag@std@@@?$vector@DV?$allocator@D@std@@@std@@AEAAX_KAEBU_Value_init_tag@1@@Z
	??$_Search_vectorized@$$CBD$$CBD@std@@YAPEBDQEBD00_K@Z
	??$_Seek_wrapped@PEAHAEAPEAH@std@@YAXAEAPEAH0@Z
	??$_Seek_wrapped@PEAMPEAM@std@@YAXAEAPEAM$$QEAPEAM@Z
	??$_Seek_wrapped@PEB_WAEAPEB_W@std@@YAXAEAPEB_W0@Z
	??$_Seek_wrapped@PEB_WPEB_W@std@@YAXAEAPEB_W$$QEAPEB_W@Z
	??$_Seek_wrapped@V?$_String_iterator@V?$_String_val@U?$_Simple_types@D@std@@@std@@@std@@AEAPEAD@std@@YAXAEAV?$_String_iterator@V?$_String_val@U?$_Simple_types@D@std@@@std@@@0@AEAPEAD@Z
	??$_Seek_wrapped@V?$_Vector_iterator@V?$_Vector_val@U?$_Simple_types@V?$basic_string@DU?$char_traits@D@std@@V?$allocator@D@2@@std@@@std@@@std@@@std@@PEAV?$basic_string@DU?$char_traits@D@std@@V?$allocator@D@2@@2@@std@@YAXAEAV?$_Vector_iterator@V?$_Vector_val@U?$_Simple_types@V?$basic_string@DU?$char_traits@D@std@@V?$allocator@D@2@@std@@@std@@@std@@@0@$$QEAPEAV?$basic_string@DU?$char_traits@D@std@@V?$allocator@D@2@@0@@Z
	??$_Set_ptr_rep_and_enable_shared@U_Dir_enum_impl@filesystem@std@@@?$shared_ptr@U_Dir_enum_impl@filesystem@std@@@std@@AEAAXQEAU_Dir_enum_impl@filesystem@1@QEAV_Ref_count_base@1@@Z
	??$_Stringoid_from_Source@DU?$char_traits@D@std@@V?$allocator@D@2@@filesystem@std@@YA?A_PAEBV?$basic_string@DU?$char_traits@D@std@@V?$allocator@D@2@@1@@Z
	??$_Stringoid_from_Source@_WU?$char_traits@_W@std@@@filesystem@std@@YA?A_PAEBV?$basic_string_view@_WU?$char_traits@_W@std@@@1@@Z
	??$_To_address@PEAD@std@@YA?A_PAEBQEAD@Z
	??$_To_address@PEAH@std@@YA?A_PAEBQEAH@Z
	??$_To_address@PEAI@std@@YA?A_PAEBQEAI@Z
	??$_To_address@PEAM@std@@YA?A_PAEBQEAM@Z
	??$_To_address@PEAPEAD@std@@YA?A_PAEBQEAPEAD@Z
	??$_To_address@PEAPEBD@std@@YA?A_PAEBQEAPEBD@Z
	??$_To_address@PEBM@std@@YA?A_PAEBQEBM@Z
	??$_To_address@PEB_W@std@@YA?A_PAEBQEB_W@Z
	??$_Traits_compare@U?$char_traits@_W@std@@@std@@YAHQEB_W_K01@Z
	??$_Traits_copy_batch@U?$char_traits@D@std@@D@std@@YAXQEADQEBD_K@Z
	??$_Traits_copy_batch@U?$char_traits@_W@std@@_W@std@@YAXQEA_WQEB_W_K@Z
	??$_Traits_equal@U?$char_traits@D@std@@@std@@YA_NQEBD_K01@Z
	??$_Traits_find@U?$char_traits@D@std@@@std@@YA_KQEBD_K101@Z
	??$_Traits_move_batch@U?$char_traits@D@std@@D@std@@YAXQEADQEBD_K@Z
	??$_Traits_move_batch@U?$char_traits@_W@std@@_W@std@@YAXQEA_WQEB_W_K@Z
	??$_UIntegral_to_buff@DI@std@@YAPEADPEADI@Z
	??$_Unfancy@D@std@@YAPEADPEAD@Z
	??$_Unfancy@H@std@@YAPEAHPEAH@Z
	??$_Unfancy@I@std@@YAPEAIPEAI@Z
	??$_Unfancy@M@std@@YAPEAMPEAM@Z
	??$_Unfancy@PEAD@std@@YAPEAPEADPEAPEAD@Z
	??$_Unfancy@PEBD@std@@YAPEAPEBDPEAPEBD@Z
	??$_Unfancy@UImageInput@@@std@@YAPEAUImageInput@@PEAU1@@Z
	??$_Unfancy@V?$Output@$$CBVNode@ov@@@ov@@@std@@YAPEAV?$Output@$$CBVNode@ov@@@ov@@PEAV12@@Z
	??$_Unfancy@V?$basic_string@DU?$char_traits@D@std@@V?$allocator@D@2@@std@@@std@@YAPEAV?$basic_string@DU?$char_traits@D@std@@V?$allocator@D@2@@0@PEAV10@@Z
	??$_Unfancy@V?$vector@DV?$allocator@D@std@@@std@@@std@@YAPEAV?$vector@DV?$allocator@D@std@@@0@PEAV10@@Z
	??$_Unfancy@V?$vector@HV?$allocator@H@std@@@std@@@std@@YAPEAV?$vector@HV?$allocator@H@std@@@0@PEAV10@@Z
	??$_Unfancy@V?$vector@MV?$allocator@M@std@@@std@@@std@@YAPEAV?$vector@MV?$allocator@M@std@@@0@PEAV10@@Z
	??$_Unfancy@_W@std@@YAPEA_WPEA_W@Z
	??$_Unfancy_maybe_null@$$CBD@std@@YAPEBDPEBD@Z
	??$_Unfancy_maybe_null@D@std@@YAPEADPEAD@Z
	??$_Unfancy_maybe_null@H@std@@YAPEAHPEAH@Z
	??$_Unfancy_maybe_null@I@std@@YAPEAIPEAI@Z
	??$_Unfancy_maybe_null@M@std@@YAPEAMPEAM@Z
	??$_Unfancy_maybe_null@PEAD@std@@YAPEAPEADPEAPEAD@Z
	??$_Unfancy_maybe_null@PEBD@std@@YAPEAPEBDPEAPEBD@Z
	??$_Unfancy_maybe_null@UImageInput@@@std@@YAPEAUImageInput@@PEAU1@@Z
	??$_Unfancy_maybe_null@V?$Output@$$CBVNode@ov@@@ov@@@std@@YAPEAV?$Output@$$CBVNode@ov@@@ov@@PEAV12@@Z
	??$_Unfancy_maybe_null@V?$basic_string@DU?$char_traits@D@std@@V?$allocator@D@2@@std@@@std@@YAPEAV?$basic_string@DU?$char_traits@D@std@@V?$allocator@D@2@@0@PEAV10@@Z
	??$_Unfancy_maybe_null@V?$vector@MV?$allocator@M@std@@@std@@@std@@YAPEAV?$vector@MV?$allocator@M@std@@@0@PEAV10@@Z
	??$_Uninitialized_copy@PEAHPEAHV?$allocator@H@std@@@std@@YAPEAHPEAH00AEAV?$allocator@H@0@@Z
	??$_Uninitialized_copy@PEAMPEAMV?$allocator@M@std@@@std@@YAPEAMPEAM00AEAV?$allocator@M@0@@Z
	??$_Uninitialized_copy@PEAV?$Output@$$CBVNode@ov@@@ov@@PEAV12@V?$allocator@V?$Output@$$CBVNode@ov@@@ov@@@std@@@std@@YAPEAV?$Output@$$CBVNode@ov@@@ov@@PEAV12@00AEAV?$allocator@V?$Output@$$CBVNode@ov@@@ov@@@0@@Z
	??$_Uninitialized_copy@PEBMPEBMV?$allocator@M@std@@@std@@YAPEAMPEBM0PEAMAEAV?$allocator@M@0@@Z
	??$_Uninitialized_copy@PEBV?$basic_string@DU?$char_traits@D@std@@V?$allocator@D@2@@std@@PEBV12@V?$allocator@V?$basic_string@DU?$char_traits@D@std@@V?$allocator@D@2@@std@@@2@@std@@YAPEAV?$basic_string@DU?$char_traits@D@std@@V?$allocator@D@2@@0@PEBV10@0PEAV10@AEAV?$allocator@V?$basic_string@DU?$char_traits@D@std@@V?$allocator@D@2@@std@@@0@@Z
	??$_Uninitialized_copy@PEBV?$vector@MV?$allocator@M@std@@@std@@PEBV12@V?$allocator@V?$vector@MV?$allocator@M@std@@@std@@@2@@std@@YAPEAV?$vector@MV?$allocator@M@std@@@0@PEBV10@0PEAV10@AEAV?$allocator@V?$vector@MV?$allocator@M@std@@@std@@@0@@Z
	??$_Uninitialized_fill_n@V?$allocator@H@std@@@std@@YAPEAHPEAH_KAEBHAEAV?$allocator@H@0@@Z
	??$_Uninitialized_fill_n@V?$allocator@I@std@@@std@@YAPEAIPEAI_KAEBIAEAV?$allocator@I@0@@Z
	??$_Uninitialized_fill_n@V?$allocator@M@std@@@std@@YAPEAMPEAM_KAEBMAEAV?$allocator@M@0@@Z
	??$_Uninitialized_move@PEADV?$allocator@D@std@@@std@@YAPEADQEAD0PEADAEAV?$allocator@D@0@@Z
	??$_Uninitialized_move@PEAHV?$allocator@H@std@@@std@@YAPEAHQEAH0PEAHAEAV?$allocator@H@0@@Z
	??$_Uninitialized_move@PEAMV?$allocator@M@std@@@std@@YAPEAMQEAM0PEAMAEAV?$allocator@M@0@@Z
	??$_Uninitialized_move@PEAPEBDV?$allocator@PEBD@std@@@std@@YAPEAPEBDQEAPEBD0PEAPEBDAEAV?$allocator@PEBD@0@@Z
	??$_Uninitialized_move@PEAUImageInput@@V?$allocator@UImageInput@@@std@@@std@@YAPEAUImageInput@@QEAU1@0PEAU1@AEAV?$allocator@UImageInput@@@0@@Z
	??$_Uninitialized_move@PEAV?$basic_string@DU?$char_traits@D@std@@V?$allocator@D@2@@std@@V?$allocator@V?$basic_string@DU?$char_traits@D@std@@V?$allocator@D@2@@std@@@2@@std@@YAPEAV?$basic_string@DU?$char_traits@D@std@@V?$allocator@D@2@@0@QEAV10@0PEAV10@AEAV?$allocator@V?$basic_string@DU?$char_traits@D@std@@V?$allocator@D@2@@std@@@0@@Z
	??$_Uninitialized_move@PEAV?$vector@HV?$allocator@H@std@@@std@@V?$allocator@V?$vector@HV?$allocator@H@std@@@std@@@2@@std@@YAPEAV?$vector@HV?$allocator@H@std@@@0@QEAV10@0PEAV10@AEAV?$allocator@V?$vector@HV?$allocator@H@std@@@std@@@0@@Z
	??$_Uninitialized_move@PEAV?$vector@MV?$allocator@M@std@@@std@@V?$allocator@V?$vector@MV?$allocator@M@std@@@std@@@2@@std@@YAPEAV?$vector@MV?$allocator@M@std@@@0@QEAV10@0PEAV10@AEAV?$allocator@V?$vector@MV?$allocator@M@std@@@std@@@0@@Z
	??$_Uninitialized_value_construct_n@V?$allocator@D@std@@@std@@YAPEADPEAD_KAEAV?$allocator@D@0@@Z
	??$_Uninitialized_value_construct_n@V?$allocator@PEAD@std@@@std@@YAPEAPEADPEAPEAD_KAEAV?$allocator@PEAD@0@@Z
	??$_Uninitialized_value_construct_n@V?$allocator@V?$vector@DV?$allocator@D@std@@@std@@@std@@@std@@YAPEAV?$vector@DV?$allocator@D@std@@@0@PEAV10@_KAEAV?$allocator@V?$vector@DV?$allocator@D@std@@@std@@@0@@Z
	??$_Zero_range@PEAD@std@@YAPEADQEAD0@Z
	??$_Zero_range@PEAPEAD@std@@YAPEAPEADQEAPEAD0@Z
	??$addressof@$$CBV?$_Vector_val@U?$_Simple_types@M@std@@@std@@@std@@YAPEBV?$_Vector_val@U?$_Simple_types@M@std@@@0@AEBV10@@Z
	??$addressof@$$CBV?$basic_string@_WU?$char_traits@_W@std@@V?$allocator@_W@2@@std@@@std@@YAPEBV?$basic_string@_WU?$char_traits@_W@std@@V?$allocator@_W@2@@0@AEBV10@@Z
	??$addressof@PEAD@std@@YAPEAPEADAEAPEAD@Z
	??$addressof@PEAU?$_Tree_node@U?$pair@$$CBV?$basic_string@DU?$char_traits@D@std@@V?$allocator@D@2@@std@@VAny@ov@@@std@@PEAX@std@@@std@@YAPEAPEAU?$_Tree_node@U?$pair@$$CBV?$basic_string@DU?$char_traits@D@std@@V?$allocator@D@2@@std@@VAny@ov@@@std@@PEAX@0@AEAPEAU10@@Z
	??$addressof@PEA_W@std@@YAPEAPEA_WAEAPEA_W@Z
	??$addressof@PEBD@std@@YAPEAPEBDAEAPEBD@Z
	??$addressof@U?$pair@$$CBV?$basic_string@DU?$char_traits@D@std@@V?$allocator@D@2@@std@@VAny@ov@@@std@@@std@@YAPEAU?$pair@$$CBV?$basic_string@DU?$char_traits@D@std@@V?$allocator@D@2@@std@@VAny@ov@@@0@AEAU10@@Z
	??$addressof@UImageInput@@@std@@YAPEAUImageInput@@AEAU1@@Z
	??$addressof@U_Dir_enum_impl@filesystem@std@@@std@@YAPEAU_Dir_enum_impl@filesystem@0@AEAU120@@Z
	??$addressof@V?$_String_val@U?$_Simple_types@D@std@@@std@@@std@@YAPEAV?$_String_val@U?$_Simple_types@D@std@@@0@AEAV10@@Z
	??$addressof@V?$_String_val@U?$_Simple_types@_W@std@@@std@@@std@@YAPEAV?$_String_val@U?$_Simple_types@_W@std@@@0@AEAV10@@Z
	??$addressof@V?$_Tree_val@U?$_Tree_simple_types@U?$pair@$$CBV?$basic_string@DU?$char_traits@D@std@@V?$allocator@D@2@@std@@VAny@ov@@@std@@@std@@@std@@@std@@YAPEAV?$_Tree_val@U?$_Tree_simple_types@U?$pair@$$CBV?$basic_string@DU?$char_traits@D@std@@V?$allocator@D@2@@std@@VAny@ov@@@std@@@std@@@0@AEAV10@@Z
	??$addressof@V?$_Vector_val@U?$_Simple_types@H@std@@@std@@@std@@YAPEAV?$_Vector_val@U?$_Simple_types@H@std@@@0@AEAV10@@Z
	??$addressof@V?$_Vector_val@U?$_Simple_types@M@std@@@std@@@std@@YAPEAV?$_Vector_val@U?$_Simple_types@M@std@@@0@AEAV10@@Z
	??$addressof@V?$_Vector_val@U?$_Simple_types@V?$basic_string@DU?$char_traits@D@std@@V?$allocator@D@2@@std@@@std@@@std@@@std@@YAPEAV?$_Vector_val@U?$_Simple_types@V?$basic_string@DU?$char_traits@D@std@@V?$allocator@D@2@@std@@@std@@@0@AEAV10@@Z
	??$addressof@V?$basic_ostream@DU?$char_traits@D@std@@@std@@@std@@YAPEAV?$basic_ostream@DU?$char_traits@D@std@@@0@AEAV10@@Z
	??$addressof@V?$basic_string@DU?$char_traits@D@std@@V?$allocator@D@2@@std@@@std@@YAPEAV?$basic_string@DU?$char_traits@D@std@@V?$allocator@D@2@@0@AEAV10@@Z
	??$addressof@V?$basic_string@_WU?$char_traits@_W@std@@V?$allocator@_W@2@@std@@@std@@YAPEAV?$basic_string@_WU?$char_traits@_W@std@@V?$allocator@_W@2@@0@AEAV10@@Z
	??$addressof@V?$vector@MV?$allocator@M@std@@@std@@@std@@YAPEAV?$vector@MV?$allocator@M@std@@@0@AEAV10@@Z
	??$append@V?$basic_string_view@DU?$char_traits@D@std@@@std@@$0A@@?$basic_string@DU?$char_traits@D@std@@V?$allocator@D@2@@std@@QEAAAEAV01@AEBV?$basic_string_view@DU?$char_traits@D@std@@@1@@Z
	??$construct@D$$V@?$_Default_allocator_traits@V?$allocator@D@std@@@std@@SAXAEAV?$allocator@D@1@QEAD@Z
	??$construct@DD@?$_Default_allocator_traits@V?$allocator@D@std@@@std@@SAXAEAV?$allocator@D@1@QEAD$$QEAD@Z
	??$construct@HAEAH@?$_Default_allocator_traits@V?$allocator@H@std@@@std@@SAXAEAV?$allocator@H@1@QEAHAEAH@Z
	??$construct@HAEBH@?$_Default_allocator_traits@V?$allocator@H@std@@@std@@SAXAEAV?$allocator@H@1@QEAHAEBH@Z
	??$construct@HH@?$_Default_allocator_traits@V?$allocator@H@std@@@std@@SAXAEAV?$allocator@H@1@QEAH$$QEAH@Z
	??$construct@IAEBI@?$_Default_allocator_traits@V?$allocator@I@std@@@std@@SAXAEAV?$allocator@I@1@QEAIAEBI@Z
	??$construct@MAEAM@?$_Default_allocator_traits@V?$allocator@M@std@@@std@@SAXAEAV?$allocator@M@1@QEAMAEAM@Z
	??$construct@MAEBM@?$_Default_allocator_traits@V?$allocator@M@std@@@std@@SAXAEAV?$allocator@M@1@QEAMAEBM@Z
	??$construct@MM@?$_Default_allocator_traits@V?$allocator@M@std@@@std@@SAXAEAV?$allocator@M@1@QEAM$$QEAM@Z
	??$construct@PEAD$$V@?$_Default_allocator_traits@V?$allocator@PEAD@std@@@std@@SAXAEAV?$allocator@PEAD@1@QEAPEAD@Z
	??$construct@PEBDPEBD@?$_Default_allocator_traits@V?$allocator@PEBD@std@@@std@@SAXAEAV?$allocator@PEBD@1@QEAPEBD$$QEAPEBD@Z
	??$construct@UImageInput@@U1@@?$_Default_allocator_traits@V?$allocator@UImageInput@@@std@@@std@@SAXAEAV?$allocator@UImageInput@@@1@QEAUImageInput@@$$QEAU3@@Z
	??$construct@V?$Output@$$CBVNode@ov@@@ov@@AEAV12@@?$_Default_allocator_traits@V?$allocator@V?$Output@$$CBVNode@ov@@@ov@@@std@@@std@@SAXAEAV?$allocator@V?$Output@$$CBVNode@ov@@@ov@@@1@QEAV?$Output@$$CBVNode@ov@@@ov@@AEAV34@@Z
	??$construct@V?$basic_string@DU?$char_traits@D@std@@V?$allocator@D@2@@std@@AEBV12@@?$_Default_allocator_traits@V?$allocator@V?$basic_string@DU?$char_traits@D@std@@V?$allocator@D@2@@std@@@std@@@std@@SAXAEAV?$allocator@V?$basic_string@DU?$char_traits@D@std@@V?$allocator@D@2@@std@@@1@QEAV?$basic_string@DU?$char_traits@D@std@@V?$allocator@D@2@@1@AEBV31@@Z
	??$construct@V?$basic_string@DU?$char_traits@D@std@@V?$allocator@D@2@@std@@V12@@?$_Default_allocator_traits@V?$allocator@V?$basic_string@DU?$char_traits@D@std@@V?$allocator@D@2@@std@@@std@@@std@@SAXAEAV?$allocator@V?$basic_string@DU?$char_traits@D@std@@V?$allocator@D@2@@std@@@1@QEAV?$basic_string@DU?$char_traits@D@std@@V?$allocator@D@2@@1@$$QEAV31@@Z
	??$construct@V?$vector@DV?$allocator@D@std@@@std@@$$V@?$_Default_allocator_traits@V?$allocator@V?$vector@DV?$allocator@D@std@@@std@@@std@@@std@@SAXAEAV?$allocator@V?$vector@DV?$allocator@D@std@@@std@@@1@QEAV?$vector@DV?$allocator@D@std@@@1@@Z
	??$construct@V?$vector@HV?$allocator@H@std@@@std@@AEBV12@@?$_Default_allocator_traits@V?$allocator@V?$vector@HV?$allocator@H@std@@@std@@@std@@@std@@SAXAEAV?$allocator@V?$vector@HV?$allocator@H@std@@@std@@@1@QEAV?$vector@HV?$allocator@H@std@@@1@AEBV31@@Z
	??$construct@V?$vector@HV?$allocator@H@std@@@std@@V12@@?$_Default_allocator_traits@V?$allocator@V?$vector@HV?$allocator@H@std@@@std@@@std@@@std@@SAXAEAV?$allocator@V?$vector@HV?$allocator@H@std@@@std@@@1@QEAV?$vector@HV?$allocator@H@std@@@1@$$QEAV31@@Z
	??$construct@V?$vector@MV?$allocator@M@std@@@std@@AEBV12@@?$_Default_allocator_traits@V?$allocator@V?$vector@MV?$allocator@M@std@@@std@@@std@@@std@@SAXAEAV?$allocator@V?$vector@MV?$allocator@M@std@@@std@@@1@QEAV?$vector@MV?$allocator@M@std@@@1@AEBV31@@Z
	??$construct@V?$vector@MV?$allocator@M@std@@@std@@V12@@?$_Default_allocator_traits@V?$allocator@V?$vector@MV?$allocator@M@std@@@std@@@std@@@std@@SAXAEAV?$allocator@V?$vector@MV?$allocator@M@std@@@std@@@1@QEAV?$vector@MV?$allocator@M@std@@@1@$$QEAV31@@Z
	??$copy@V?$_Vector_iterator@V?$_Vector_val@U?$_Simple_types@M@std@@@std@@@std@@PEAM@std@@YAPEAMV?$_Vector_iterator@V?$_Vector_val@U?$_Simple_types@M@std@@@std@@@0@0PEAM@Z
	??$copy_n@V?$_Vector_iterator@V?$_Vector_val@U?$_Simple_types@H@std@@@std@@@std@@_KPEAH@std@@YAPEAHV?$_Vector_iterator@V?$_Vector_val@U?$_Simple_types@H@std@@@std@@@0@_KPEAH@Z
	??$data@HH@Tensor@ov@@QEAAPEAHXZ
	??$data@MM@Tensor@ov@@QEAAPEAMXZ
	??$destroy@U?$pair@$$CBV?$basic_string@DU?$char_traits@D@std@@V?$allocator@D@2@@std@@VAny@ov@@@std@@@?$_Default_allocator_traits@V?$allocator@U?$_Tree_node@U?$pair@$$CBV?$basic_string@DU?$char_traits@D@std@@V?$allocator@D@2@@std@@VAny@ov@@@std@@PEAX@std@@@std@@@std@@SAXAEAV?$allocator@U?$_Tree_node@U?$pair@$$CBV?$basic_string@DU?$char_traits@D@std@@V?$allocator@D@2@@std@@VAny@ov@@@std@@PEAX@std@@@1@QEAU?$pair@$$CBV?$basic_string@DU?$char_traits@D@std@@V?$allocator@D@2@@std@@VAny@ov@@@1@@Z
	??$destroy@UImageInput@@@?$_Default_allocator_traits@V?$allocator@UImageInput@@@std@@@std@@SAXAEAV?$allocator@UImageInput@@@1@QEAUImageInput@@@Z
	??$destroy@V?$Output@$$CBVNode@ov@@@ov@@@?$_Default_allocator_traits@V?$allocator@V?$Output@$$CBVNode@ov@@@ov@@@std@@@std@@SAXAEAV?$allocator@V?$Output@$$CBVNode@ov@@@ov@@@1@QEAV?$Output@$$CBVNode@ov@@@ov@@@Z
	??$destroy@V?$basic_string@DU?$char_traits@D@std@@V?$allocator@D@2@@std@@@?$_Default_allocator_traits@V?$allocator@V?$basic_string@DU?$char_traits@D@std@@V?$allocator@D@2@@std@@@std@@@std@@SAXAEAV?$allocator@V?$basic_string@DU?$char_traits@D@std@@V?$allocator@D@2@@std@@@1@QEAV?$basic_string@DU?$char_traits@D@std@@V?$allocator@D@2@@1@@Z
	??$destroy@V?$vector@DV?$allocator@D@std@@@std@@@?$_Default_allocator_traits@V?$allocator@V?$vector@DV?$allocator@D@std@@@std@@@std@@@std@@SAXAEAV?$allocator@V?$vector@DV?$allocator@D@std@@@std@@@1@QEAV?$vector@DV?$allocator@D@std@@@1@@Z
	??$destroy@V?$vector@HV?$allocator@H@std@@@std@@@?$_Default_allocator_traits@V?$allocator@V?$vector@HV?$allocator@H@std@@@std@@@std@@@std@@SAXAEAV?$allocator@V?$vector@HV?$allocator@H@std@@@std@@@1@QEAV?$vector@HV?$allocator@H@std@@@1@@Z
	??$destroy@V?$vector@MV?$allocator@M@std@@@std@@@?$_Default_allocator_traits@V?$allocator@V?$vector@MV?$allocator@M@std@@@std@@@std@@@std@@SAXAEAV?$allocator@V?$vector@MV?$allocator@M@std@@@std@@@1@QEAV?$vector@MV?$allocator@M@std@@@1@@Z
	??$distance@PEBM@std@@YA_JPEBM0@Z
	??$end@D$0BF@@std@@YAPEADAEAY0BF@D@Z
	??$endl@DU?$char_traits@D@std@@@std@@YAAEAV?$basic_ostream@DU?$char_traits@D@std@@@0@AEAV10@@Z
	??$exchange@PEAH$$T@std@@YAPEAHAEAPEAH$$QEA$$T@Z
	??$exchange@PEAM$$T@std@@YAPEAMAEAPEAM$$QEA$$T@Z
	??$exchange@PEAU?$_Tree_node@U?$pair@$$CBV?$basic_string@DU?$char_traits@D@std@@V?$allocator@D@2@@std@@VAny@ov@@@std@@PEAX@std@@AEAPEAU12@@std@@YAPEAU?$_Tree_node@U?$pair@$$CBV?$basic_string@DU?$char_traits@D@std@@V?$allocator@D@2@@std@@VAny@ov@@@std@@PEAX@0@AEAPEAU10@0@Z
	??$exchange@PEAV?$basic_string@DU?$char_traits@D@std@@V?$allocator@D@2@@std@@$$T@std@@YAPEAV?$basic_string@DU?$char_traits@D@std@@V?$allocator@D@2@@0@AEAPEAV10@$$QEA$$T@Z
	??$exchange@PEAV?$vector@MV?$allocator@M@std@@@std@@$$T@std@@YAPEAV?$vector@MV?$allocator@M@std@@@0@AEAPEAV10@$$QEA$$T@Z
	??$exchange@PEAVChineseCLIPProcessor@@$$T@std@@YAPEAVChineseCLIPProcessor@@AEAPEAV1@$$QEA$$T@Z
	??$exchange@PEAVChineseCLIPProcessor@@AEAPEAV1@@std@@YAPEAVChineseCLIPProcessor@@AEAPEAV1@0@Z
	??$exchange@PEAVCompiledModel@ov@@$$T@std@@YAPEAVCompiledModel@ov@@AEAPEAV12@$$QEA$$T@Z
	??$exchange@PEAVCompiledModel@ov@@AEAPEAV12@@std@@YAPEAVCompiledModel@ov@@AEAPEAV12@0@Z
	??$exchange@PEAVCore@ov@@$$T@std@@YAPEAVCore@ov@@AEAPEAV12@$$QEA$$T@Z
	??$exchange@PEAVCore@ov@@AEAPEAV12@@std@@YAPEAVCore@ov@@AEAPEAV12@0@Z
	??$exchange@PEAVSentencePieceProcessor@sentencepiece@@$$T@std@@YAPEAVSentencePieceProcessor@sentencepiece@@AEAPEAV12@$$QEA$$T@Z
	??$exchange@PEAVSentencePieceProcessor@sentencepiece@@AEAPEAV12@@std@@YAPEAVSentencePieceProcessor@sentencepiece@@AEAPEAV12@0@Z
	??$exchange@PEAVVLMProcessor@@$$T@std@@YAPEAVVLMProcessor@@AEAPEAV1@$$QEA$$T@Z
	??$exchange@PEAVVLMProcessor@@AEAPEAV1@@std@@YAPEAVVLMProcessor@@AEAPEAV1@0@Z
	??$exchange@W4__std_fs_dir_handle@@W41@@std@@YA?AW4__std_fs_dir_handle@@AEAW41@$$QEAW41@@Z
	??$find@PEB_W_W@std@@YAPEB_WPEB_WQEB_WAEB_W@Z
	??$find@V?$_Vector_iterator@V?$_Vector_val@U?$_Simple_types@V?$basic_string@DU?$char_traits@D@std@@V?$allocator@D@2@@std@@@std@@@std@@@std@@V?$basic_string@DU?$char_traits@D@std@@V?$allocator@D@2@@2@@std@@YA?AV?$_Vector_iterator@V?$_Vector_val@U?$_Simple_types@V?$basic_string@DU?$char_traits@D@std@@V?$allocator@D@2@@std@@@std@@@std@@@0@V10@V10@AEBV?$basic_string@DU?$char_traits@D@std@@V?$allocator@D@2@@0@@Z
	??$find_if@PEB_WU_Is_slash_oper@filesystem@std@@@std@@YAPEB_WPEB_WQEB_WU_Is_slash_oper@filesystem@0@@Z
	??$find_if_not@PEB_WU_Is_slash_oper@filesystem@std@@@std@@YAPEB_WPEB_WQEB_WU_Is_slash_oper@filesystem@0@@Z
	??$forward@AEAH@std@@YAAEAHAEAH@Z
	??$forward@AEAI@std@@YAAEAIAEAI@Z
	??$forward@AEAM@std@@YAAEAMAEAM@Z
	??$forward@AEAPEAD@std@@YAAEAPEADAEAPEAD@Z
	??$forward@AEAPEAH@std@@YAAEAPEAHAEAPEAH@Z
	??$forward@AEAPEAVChineseCLIPProcessor@@@std@@YAAEAPEAVChineseCLIPProcessor@@AEAPEAV1@@Z
	??$forward@AEAPEAVCompiledModel@ov@@@std@@YAAEAPEAVCompiledModel@ov@@AEAPEAV12@@Z
	??$forward@AEAPEAVCore@ov@@@std@@YAAEAPEAVCore@ov@@AEAPEAV12@@Z
	??$forward@AEAPEAVSentencePieceProcessor@sentencepiece@@@std@@YAAEAPEAVSentencePieceProcessor@sentencepiece@@AEAPEAV12@@Z
	??$forward@AEAPEAVVLMProcessor@@@std@@YAAEAPEAVVLMProcessor@@AEAPEAV1@@Z
	??$forward@AEAPEA_W@std@@YAAEAPEA_WAEAPEA_W@Z
	??$forward@AEAPEB_W@std@@YAAEAPEB_WAEAPEB_W@Z
	??$forward@AEAV?$Output@$$CBVNode@ov@@@ov@@@std@@YAAEAV?$Output@$$CBVNode@ov@@@ov@@AEAV12@@Z
	??$forward@AEAV?$allocator@D@std@@@std@@YAAEAV?$allocator@D@0@AEAV10@@Z
	??$forward@AEAV?$basic_string@DU?$char_traits@D@std@@V?$allocator@D@2@@std@@@std@@YAAEAV?$basic_string@DU?$char_traits@D@std@@V?$allocator@D@2@@0@AEAV10@@Z
	??$forward@AEBH@std@@YAAEBHAEBH@Z
	??$forward@AEBI@std@@YAAEBIAEBI@Z
	??$forward@AEBM@std@@YAAEBMAEBM@Z
	??$forward@AEBQEAD@std@@YAAEBQEADAEBQEAD@Z
	??$forward@AEBQEAH@std@@YAAEBQEAHAEBQEAH@Z
	??$forward@AEBQEAM@std@@YAAEBQEAMAEBQEAM@Z
	??$forward@AEBQEAU?$_Tree_node@U?$pair@$$CBV?$basic_string@DU?$char_traits@D@std@@V?$allocator@D@2@@std@@VAny@ov@@@std@@PEAX@std@@@std@@YAAEBQEAU?$_Tree_node@U?$pair@$$CBV?$basic_string@DU?$char_traits@D@std@@V?$allocator@D@2@@std@@VAny@ov@@@std@@PEAX@0@AEBQEAU10@@Z
	??$forward@AEBQEAV?$Output@$$CBVNode@ov@@@ov@@@std@@YAAEBQEAV?$Output@$$CBVNode@ov@@@ov@@AEBQEAV12@@Z
	??$forward@AEBQEA_W@std@@YAAEBQEA_WAEBQEA_W@Z
	??$forward@AEBU?$less@V?$basic_string@DU?$char_traits@D@std@@V?$allocator@D@2@@std@@@std@@@std@@YAAEBU?$less@V?$basic_string@DU?$char_traits@D@std@@V?$allocator@D@2@@std@@@0@AEBU10@@Z
	??$forward@AEBV?$allocator@D@std@@@std@@YAAEBV?$allocator@D@0@AEBV10@@Z
	??$forward@AEBV?$allocator@H@std@@@std@@YAAEBV?$allocator@H@0@AEBV10@@Z
	??$forward@AEBV?$allocator@I@std@@@std@@YAAEBV?$allocator@I@0@AEBV10@@Z
	??$forward@AEBV?$allocator@M@std@@@std@@YAAEBV?$allocator@M@0@AEBV10@@Z
	??$forward@AEBV?$allocator@PEAD@std@@@std@@YAAEBV?$allocator@PEAD@0@AEBV10@@Z
	??$forward@AEBV?$allocator@V?$basic_string@DU?$char_traits@D@std@@V?$allocator@D@2@@std@@@std@@@std@@YAAEBV?$allocator@V?$basic_string@DU?$char_traits@D@std@@V?$allocator@D@2@@std@@@0@AEBV10@@Z
	??$forward@AEBV?$allocator@V?$vector@DV?$allocator@D@std@@@std@@@std@@@std@@YAAEBV?$allocator@V?$vector@DV?$allocator@D@std@@@std@@@0@AEBV10@@Z
	??$forward@AEBV?$allocator@V?$vector@MV?$allocator@M@std@@@std@@@std@@@std@@YAAEBV?$allocator@V?$vector@MV?$allocator@M@std@@@std@@@0@AEBV10@@Z
	??$forward@AEBV?$allocator@_W@std@@@std@@YAAEBV?$allocator@_W@0@AEBV10@@Z
	??$forward@AEBV?$basic_string@DU?$char_traits@D@std@@V?$allocator@D@2@@std@@@std@@YAAEBV?$basic_string@DU?$char_traits@D@std@@V?$allocator@D@2@@0@AEBV10@@Z
	??$forward@AEBV?$vector@HV?$allocator@H@std@@@std@@@std@@YAAEBV?$vector@HV?$allocator@H@std@@@0@AEBV10@@Z
	??$forward@AEBV?$vector@MV?$allocator@M@std@@@std@@@std@@YAAEBV?$vector@MV?$allocator@M@std@@@0@AEBV10@@Z
	??$forward@AEBW4directory_options@filesystem@std@@@std@@YAAEBW4directory_options@filesystem@0@AEBW4120@@Z
	??$forward@D@std@@YA$$QEADAEAD@Z
	??$forward@H@std@@YA$$QEAHAEAH@Z
	??$forward@M@std@@YA$$QEAMAEAM@Z
	??$forward@PEAH@std@@YA$$QEAPEAHAEAPEAH@Z
	??$forward@PEAM@std@@YA$$QEAPEAMAEAPEAM@Z
	??$forward@PEAV?$basic_string@DU?$char_traits@D@std@@V?$allocator@D@2@@std@@@std@@YA$$QEAPEAV?$basic_string@DU?$char_traits@D@std@@V?$allocator@D@2@@0@AEAPEAV10@@Z
	??$forward@PEAV?$vector@MV?$allocator@M@std@@@std@@@std@@YA$$QEAPEAV?$vector@MV?$allocator@M@std@@@0@AEAPEAV10@@Z
	??$forward@PEBD@std@@YA$$QEAPEBDAEAPEBD@Z
	??$forward@PEBM@std@@YA$$QEAPEBMAEAPEBM@Z
	??$forward@PEBV?$basic_string@DU?$char_traits@D@std@@V?$allocator@D@2@@std@@@std@@YA$$QEAPEBV?$basic_string@DU?$char_traits@D@std@@V?$allocator@D@2@@0@AEAPEBV10@@Z
	??$forward@PEBV?$vector@MV?$allocator@M@std@@@std@@@std@@YA$$QEAPEBV?$vector@MV?$allocator@M@std@@@0@AEAPEBV10@@Z
	??$forward@PEB_W@std@@YA$$QEAPEB_WAEAPEB_W@Z
	??$forward@U?$default_delete@VChineseCLIPProcessor@@@std@@@std@@YA$$QEAU?$default_delete@VChineseCLIPProcessor@@@0@AEAU10@@Z
	??$forward@U?$default_delete@VCompiledModel@ov@@@std@@@std@@YA$$QEAU?$default_delete@VCompiledModel@ov@@@0@AEAU10@@Z
	??$forward@U?$default_delete@VCore@ov@@@std@@@std@@YA$$QEAU?$default_delete@VCore@ov@@@0@AEAU10@@Z
	??$forward@U?$default_delete@VSentencePieceProcessor@sentencepiece@@@std@@@std@@YA$$QEAU?$default_delete@VSentencePieceProcessor@sentencepiece@@@0@AEAU10@@Z
	??$forward@U?$default_delete@VVLMProcessor@@@std@@@std@@YA$$QEAU?$default_delete@VVLMProcessor@@@0@AEAU10@@Z
	??$forward@UImageInput@@@std@@YA$$QEAUImageInput@@AEAU1@@Z
	??$forward@U_Creator@_Dir_enum_impl@filesystem@std@@@std@@YA$$QEAU_Creator@_Dir_enum_impl@filesystem@0@AEAU1230@@Z
	??$forward@U_Zero_then_variadic_args_t@std@@@std@@YA$$QEAU_Zero_then_variadic_args_t@0@AEAU10@@Z
	??$forward@V?$allocator@D@std@@@std@@YA$$QEAV?$allocator@D@0@AEAV10@@Z
	??$forward@V?$allocator@H@std@@@std@@YA$$QEAV?$allocator@H@0@AEAV10@@Z
	??$forward@V?$allocator@M@std@@@std@@YA$$QEAV?$allocator@M@0@AEAV10@@Z
	??$forward@V?$allocator@V?$Output@$$CBVNode@ov@@@ov@@@std@@@std@@YA$$QEAV?$allocator@V?$Output@$$CBVNode@ov@@@ov@@@0@AEAV10@@Z
	??$forward@V?$allocator@V?$basic_string@DU?$char_traits@D@std@@V?$allocator@D@2@@std@@@std@@@std@@YA$$QEAV?$allocator@V?$basic_string@DU?$char_traits@D@std@@V?$allocator@D@2@@std@@@0@AEAV10@@Z
	??$forward@V?$allocator@V?$vector@MV?$allocator@M@std@@@std@@@std@@@std@@YA$$QEAV?$allocator@V?$vector@MV?$allocator@M@std@@@std@@@0@AEAV10@@Z
	??$forward@V?$allocator@_W@std@@@std@@YA$$QEAV?$allocator@_W@0@AEAV10@@Z
	??$forward@V?$basic_string@DU?$char_traits@D@std@@V?$allocator@D@2@@std@@@std@@YA$$QEAV?$basic_string@DU?$char_traits@D@std@@V?$allocator@D@2@@0@AEAV10@@Z
	??$forward@V?$vector@HV?$allocator@H@std@@@std@@@std@@YA$$QEAV?$vector@HV?$allocator@H@std@@@0@AEAV10@@Z
	??$forward@V?$vector@MV?$allocator@M@std@@@std@@@std@@YA$$QEAV?$vector@MV?$allocator@M@std@@@0@AEAV10@@Z
	??$forward@VCompiledModel@ov@@@std@@YA$$QEAVCompiledModel@ov@@AEAV12@@Z
	??$from@H@element@ov@@YA?AVType@01@XZ
	??$from@M@element@ov@@YA?AVType@01@XZ
	??$inner_product@V?$_Vector_const_iterator@V?$_Vector_val@U?$_Simple_types@M@std@@@std@@@std@@V12@M@std@@YAMV?$_Vector_const_iterator@V?$_Vector_val@U?$_Simple_types@M@std@@@std@@@0@00M@Z
	??$inner_product@V?$_Vector_const_iterator@V?$_Vector_val@U?$_Simple_types@M@std@@@std@@@std@@V12@MU?$plus@X@2@U?$multiplies@X@2@@std@@YAMV?$_Vector_const_iterator@V?$_Vector_val@U?$_Simple_types@M@std@@@std@@@0@00MU?$plus@X@0@U?$multiplies@X@0@@Z
	??$inner_product@V?$_Vector_iterator@V?$_Vector_val@U?$_Simple_types@M@std@@@std@@@std@@V12@M@std@@YAMV?$_Vector_iterator@V?$_Vector_val@U?$_Simple_types@M@std@@@std@@@0@00M@Z
	??$inner_product@V?$_Vector_iterator@V?$_Vector_val@U?$_Simple_types@M@std@@@std@@@std@@V12@MU?$plus@X@2@U?$multiplies@X@2@@std@@YAMV?$_Vector_iterator@V?$_Vector_val@U?$_Simple_types@M@std@@@std@@@0@00MU?$plus@X@0@U?$multiplies@X@0@@Z
	??$make_shared@U_Dir_enum_impl@filesystem@std@@U_Creator@123@AEBW4directory_options@23@@std@@YA?AV?$shared_ptr@U_Dir_enum_impl@filesystem@std@@@0@$$QEAU_Creator@_Dir_enum_impl@filesystem@0@AEBW4directory_options@40@@Z
	??$make_unique@VChineseCLIPProcessor@@AEAV?$basic_string@DU?$char_traits@D@std@@V?$allocator@D@2@@std@@AEAV23@$0A@@std@@YA?AV?$unique_ptr@VChineseCLIPProcessor@@U?$default_delete@VChineseCLIPProcessor@@@std@@@0@AEAV?$basic_string@DU?$char_traits@D@std@@V?$allocator@D@2@@0@0@Z
	??$make_unique@VCompiledModel@ov@@V12@$0A@@std@@YA?AV?$unique_ptr@VCompiledModel@ov@@U?$default_delete@VCompiledModel@ov@@@std@@@0@$$QEAVCompiledModel@ov@@@Z
	??$make_unique@VCore@ov@@$$V$0A@@std@@YA?AV?$unique_ptr@VCore@ov@@U?$default_delete@VCore@ov@@@std@@@0@XZ
	??$make_unique@VSentencePieceProcessor@sentencepiece@@$$V$0A@@std@@YA?AV?$unique_ptr@VSentencePieceProcessor@sentencepiece@@U?$default_delete@VSentencePieceProcessor@sentencepiece@@@std@@@0@XZ
	??$make_unique@VVLMProcessor@@AEAV?$basic_string@DU?$char_traits@D@std@@V?$allocator@D@2@@std@@AEAV23@AEAIAEAV23@$0A@@std@@YA?AV?$unique_ptr@VVLMProcessor@@U?$default_delete@VVLMProcessor@@@std@@@0@AEAV?$basic_string@DU?$char_traits@D@std@@V?$allocator@D@2@@0@0AEAI0@Z
	??$max@_K@std@@YAAEB_KAEB_K0@Z
	??$min@H@std@@YAAEBHAEBH0@Z
	??$min@_K@std@@YAAEB_KAEB_K0@Z
	??$move@AEAD@std@@YA$$QEADAEAD@Z
	??$move@AEAH@std@@YA$$QEAHAEAH@Z
	??$move@AEAM@std@@YA$$QEAMAEAM@Z
	??$move@AEAPEAD@std@@YA$$QEAPEADAEAPEAD@Z
	??$move@AEAPEAH@std@@YA$$QEAPEAHAEAPEAH@Z
	??$move@AEAPEAM@std@@YA$$QEAPEAMAEAPEAM@Z
	??$move@AEAPEAPEBD@std@@YA$$QEAPEAPEBDAEAPEAPEBD@Z
	??$move@AEAPEAU_Dir_enum_impl@filesystem@std@@@std@@YA$$QEAPEAU_Dir_enum_impl@filesystem@0@AEAPEAU120@@Z
	??$move@AEAPEAV?$Output@$$CBVNode@ov@@@ov@@@std@@YA$$QEAPEAV?$Output@$$CBVNode@ov@@@ov@@AEAPEAV12@@Z
	??$move@AEAPEAV_Ref_count_base@std@@@std@@YA$$QEAPEAV_Ref_count_base@0@AEAPEAV10@@Z
	??$move@AEAPEBD@std@@YA$$QEAPEBDAEAPEBD@Z
	??$move@AEAPEBM@std@@YA$$QEAPEBMAEAPEBM@Z
	??$move@AEAPEBV?$basic_string@DU?$char_traits@D@std@@V?$allocator@D@2@@std@@@std@@YA$$QEAPEBV?$basic_string@DU?$char_traits@D@std@@V?$allocator@D@2@@0@AEAPEBV10@@Z
	??$move@AEAPEBV?$vector@MV?$allocator@M@std@@@std@@@std@@YA$$QEAPEBV?$vector@MV?$allocator@M@std@@@0@AEAPEBV10@@Z
	??$move@AEAUImageInput@@@std@@YA$$QEAUImageInput@@AEAU1@@Z
	??$move@AEAU_Creator@_Dir_enum_impl@filesystem@std@@@std@@YA$$QEAU_Creator@_Dir_enum_impl@filesystem@0@AEAU1230@@Z
	??$move@AEAU_Find_file_handle@filesystem@std@@@std@@YA$$QEAU_Find_file_handle@filesystem@0@AEAU120@@Z
	??$move@AEAV?$allocator@D@std@@@std@@YA$$QEAV?$allocator@D@0@AEAV10@@Z
	??$move@AEAV?$allocator@H@std@@@std@@YA$$QEAV?$allocator@H@0@AEAV10@@Z
	??$move@AEAV?$allocator@M@std@@@std@@YA$$QEAV?$allocator@M@0@AEAV10@@Z
	??$move@AEAV?$allocator@V?$basic_string@DU?$char_traits@D@std@@V?$allocator@D@2@@std@@@std@@@std@@YA$$QEAV?$allocator@V?$basic_string@DU?$char_traits@D@std@@V?$allocator@D@2@@std@@@0@AEAV10@@Z
	??$move@AEAV?$allocator@V?$vector@MV?$allocator@M@std@@@std@@@std@@@std@@YA$$QEAV?$allocator@V?$vector@MV?$allocator@M@std@@@std@@@0@AEAV10@@Z
	??$move@AEAV?$allocator@_W@std@@@std@@YA$$QEAV?$allocator@_W@0@AEAV10@@Z
	??$move@AEAV?$basic_string@DU?$char_traits@D@std@@V?$allocator@D@2@@std@@@std@@YA$$QEAV?$basic_string@DU?$char_traits@D@std@@V?$allocator@D@2@@0@AEAV10@@Z
	??$move@AEAV?$shared_ptr@U_Dir_enum_impl@filesystem@std@@@std@@@std@@YA$$QEAV?$shared_ptr@U_Dir_enum_impl@filesystem@std@@@0@AEAV10@@Z
	??$move@AEAV?$vector@HV?$allocator@H@std@@@std@@@std@@YA$$QEAV?$vector@HV?$allocator@H@std@@@0@AEAV10@@Z
	??$move@AEAV?$vector@MV?$allocator@M@std@@@std@@@std@@YA$$QEAV?$vector@MV?$allocator@M@std@@@0@AEAV10@@Z
	??$move@AEAVpath@filesystem@std@@@std@@YA$$QEAVpath@filesystem@0@AEAV120@@Z
	??$string@DU?$char_traits@D@std@@V?$allocator@D@2@$0A@@path@filesystem@std@@QEBA?AV?$basic_string@DU?$char_traits@D@std@@V?$allocator@D@2@@2@AEBV?$allocator@D@2@@Z
	??$swap@PEAU_Dir_enum_impl@filesystem@std@@$0A@@std@@YAXAEAPEAU_Dir_enum_impl@filesystem@0@0@Z
	??$swap@PEAV_Ref_count_base@std@@$0A@@std@@YAXAEAPEAV_Ref_count_base@0@0@Z
	??$transform@V?$_String_iterator@V?$_String_val@U?$_Simple_types@D@std@@@std@@@std@@V12@P6AHH@Z@std@@YA?AV?$_String_iterator@V?$_String_val@U?$_Simple_types@D@std@@@std@@@0@V10@0V10@P6AHH@Z@Z
	??0?$_Ptr_base@$$CBVModel@ov@@@std@@IEAA@XZ
	??0?$_Ptr_base@U_Dir_enum_impl@filesystem@std@@@std@@IEAA@XZ
	??0?$_String_const_iterator@V?$_String_val@U?$_Simple_types@D@std@@@std@@@std@@QEAA@PEBDPEBU_Container_base0@1@@Z
	??0?$_String_iterator@V?$_String_val@U?$_Simple_types@D@std@@@std@@@std@@QEAA@PEBDPEBU_Container_base0@1@@Z
	??0?$_String_val@U?$_Simple_types@D@std@@@std@@QEAA@XZ
	??0?$_String_val@U?$_Simple_types@_W@std@@@std@@QEAA@XZ
	??0?$_Tree@V?$_Tmap_traits@V?$basic_string@DU?$char_traits@D@std@@V?$allocator@D@2@@std@@VAny@ov@@U?$less@V?$basic_string@DU?$char_traits@D@std@@V?$allocator@D@2@@std@@@2@V?$allocator@U?$pair@$$CBV?$basic_string@DU?$char_traits@D@std@@V?$allocator@D@2@@std@@VAny@ov@@@std@@@2@$0A@@std@@@std@@QEAA@AEBU?$less@V?$basic_string@DU?$char_traits@D@std@@V?$allocator@D@2@@std@@@1@@Z
	??0?$_Tree_val@U?$_Tree_simple_types@U?$pair@$$CBV?$basic_string@DU?$char_traits@D@std@@V?$allocator@D@2@@std@@VAny@ov@@@std@@@std@@@std@@QEAA@XZ
	??0?$_Uninitialized_backout_al@V?$allocator@D@std@@@std@@QEAA@PEADAEAV?$allocator@D@1@@Z
	??0?$_Uninitialized_backout_al@V?$allocator@H@std@@@std@@QEAA@PEAHAEAV?$allocator@H@1@@Z
	??0?$_Uninitialized_backout_al@V?$allocator@I@std@@@std@@QEAA@PEAIAEAV?$allocator@I@1@@Z
	??0?$_Uninitialized_backout_al@V?$allocator@M@std@@@std@@QEAA@PEAMAEAV?$allocator@M@1@@Z
	??0?$_Uninitialized_backout_al@V?$allocator@PEAD@std@@@std@@QEAA@PEAPEADAEAV?$allocator@PEAD@1@@Z
	??0?$_Uninitialized_backout_al@V?$allocator@PEBD@std@@@std@@QEAA@PEAPEBDAEAV?$allocator@PEBD@1@@Z
	??0?$_Uninitialized_backout_al@V?$allocator@UImageInput@@@std@@@std@@QEAA@PEAUImageInput@@AEAV?$allocator@UImageInput@@@1@@Z
	??0?$_Uninitialized_backout_al@V?$allocator@V?$Output@$$CBVNode@ov@@@ov@@@std@@@std@@QEAA@PEAV?$Output@$$CBVNode@ov@@@ov@@AEAV?$allocator@V?$Output@$$CBVNode@ov@@@ov@@@1@@Z
	??0?$_Uninitialized_backout_al@V?$allocator@V?$basic_string@DU?$char_traits@D@std@@V?$allocator@D@2@@std@@@std@@@std@@QEAA@PEAV?$basic_string@DU?$char_traits@D@std@@V?$allocator@D@2@@1@AEAV?$allocator@V?$basic_string@DU?$char_traits@D@std@@V?$allocator@D@2@@std@@@1@@Z
	??0?$_Uninitialized_backout_al@V?$allocator@V?$vector@DV?$allocator@D@std@@@std@@@std@@@std@@QEAA@PEAV?$vector@DV?$allocator@D@std@@@1@AEAV?$allocator@V?$vector@DV?$allocator@D@std@@@std@@@1@@Z
	??0?$_Uninitialized_backout_al@V?$allocator@V?$vector@HV?$allocator@H@std@@@std@@@std@@@std@@QEAA@PEAV?$vector@HV?$allocator@H@std@@@1@AEAV?$allocator@V?$vector@HV?$allocator@H@std@@@std@@@1@@Z
	??0?$_Uninitialized_backout_al@V?$allocator@V?$vector@MV?$allocator@M@std@@@std@@@std@@@std@@QEAA@PEAV?$vector@MV?$allocator@M@std@@@1@AEAV?$allocator@V?$vector@MV?$allocator@M@std@@@std@@@1@@Z
	??0?$_Vector_const_iterator@V?$_Vector_val@U?$_Simple_types@H@std@@@std@@@std@@QEAA@PEAHPEBU_Container_base0@1@@Z
	??0?$_Vector_const_iterator@V?$_Vector_val@U?$_Simple_types@M@std@@@std@@@std@@QEAA@PEAMPEBU_Container_base0@1@@Z
	??0?$_Vector_const_iterator@V?$_Vector_val@U?$_Simple_types@V?$basic_string@DU?$char_traits@D@std@@V?$allocator@D@2@@std@@@std@@@std@@@std@@QEAA@PEAV?$basic_string@DU?$char_traits@D@std@@V?$allocator@D@2@@1@PEBU_Container_base0@1@@Z
	??0?$_Vector_iterator@V?$_Vector_val@U?$_Simple_types@H@std@@@std@@@std@@QEAA@PEAHPEBU_Container_base0@1@@Z
	??0?$_Vector_iterator@V?$_Vector_val@U?$_Simple_types@M@std@@@std@@@std@@QEAA@PEAMPEBU_Container_base0@1@@Z
	??0?$_Vector_iterator@V?$_Vector_val@U?$_Simple_types@V?$basic_string@DU?$char_traits@D@std@@V?$allocator@D@2@@std@@@std@@@std@@@std@@QEAA@PEAV?$basic_string@DU?$char_traits@D@std@@V?$allocator@D@2@@1@PEBU_Container_base0@1@@Z
	??0?$_Vector_val@U?$_Simple_types@D@std@@@std@@QEAA@XZ
	??0?$_Vector_val@U?$_Simple_types@H@std@@@std@@QEAA@PEAH00@Z
	??0?$_Vector_val@U?$_Simple_types@H@std@@@std@@QEAA@XZ
	??0?$_Vector_val@U?$_Simple_types@I@std@@@std@@QEAA@XZ
	??0?$_Vector_val@U?$_Simple_types@M@std@@@std@@QEAA@PEAM00@Z
	??0?$_Vector_val@U?$_Simple_types@M@std@@@std@@QEAA@XZ
	??0?$_Vector_val@U?$_Simple_types@PEAD@std@@@std@@QEAA@XZ
	??0?$_Vector_val@U?$_Simple_types@PEBD@std@@@std@@QEAA@XZ
	??0?$_Vector_val@U?$_Simple_types@UImageInput@@@std@@@std@@QEAA@XZ
	??0?$_Vector_val@U?$_Simple_types@V?$Output@$$CBVNode@ov@@@ov@@@std@@@std@@QEAA@XZ
	??0?$_Vector_val@U?$_Simple_types@V?$basic_string@DU?$char_traits@D@std@@V?$allocator@D@2@@std@@@std@@@std@@QEAA@PEAV?$basic_string@DU?$char_traits@D@std@@V?$allocator@D@2@@1@00@Z
	??0?$_Vector_val@U?$_Simple_types@V?$basic_string@DU?$char_traits@D@std@@V?$allocator@D@2@@std@@@std@@@std@@QEAA@XZ
	??0?$_Vector_val@U?$_Simple_types@V?$vector@DV?$allocator@D@std@@@std@@@std@@@std@@QEAA@XZ
	??0?$_Vector_val@U?$_Simple_types@V?$vector@HV?$allocator@H@std@@@std@@@std@@@std@@QEAA@XZ
	??0?$_Vector_val@U?$_Simple_types@V?$vector@MV?$allocator@M@std@@@std@@@std@@@std@@QEAA@PEAV?$vector@MV?$allocator@M@std@@@1@00@Z
	??0?$_Vector_val@U?$_Simple_types@V?$vector@MV?$allocator@M@std@@@std@@@std@@@std@@QEAA@XZ
	??0?$allocator@D@std@@QEAA@XZ
	??0?$allocator@H@std@@QEAA@XZ
	??0?$allocator@I@std@@QEAA@XZ
	??0?$allocator@M@std@@QEAA@XZ
	??0?$allocator@PEAD@std@@QEAA@XZ
	??0?$allocator@PEBD@std@@QEAA@XZ
	??0?$allocator@U?$_Tree_node@U?$pair@$$CBV?$basic_string@DU?$char_traits@D@std@@V?$allocator@D@2@@std@@VAny@ov@@@std@@PEAX@std@@@std@@QEAA@XZ
	??0?$allocator@UImageInput@@@std@@QEAA@XZ
	??0?$allocator@V?$basic_string@DU?$char_traits@D@std@@V?$allocator@D@2@@std@@@std@@QEAA@XZ
	??0?$allocator@V?$vector@DV?$allocator@D@std@@@std@@@std@@QEAA@XZ
	??0?$allocator@V?$vector@HV?$allocator@H@std@@@std@@@std@@QEAA@XZ
	??0?$allocator@V?$vector@MV?$allocator@M@std@@@std@@@std@@QEAA@XZ
	??0?$allocator@_W@std@@QEAA@XZ
	??0?$basic_string@DU?$char_traits@D@std@@V?$allocator@D@2@@std@@QEAA@$$QEAV01@@Z
	??0?$basic_string@DU?$char_traits@D@std@@V?$allocator@D@2@@std@@QEAA@AEBV01@@Z
	??0?$basic_string@DU?$char_traits@D@std@@V?$allocator@D@2@@std@@QEAA@AEBV01@_K1AEBV?$allocator@D@1@@Z
	??0?$basic_string@DU?$char_traits@D@std@@V?$allocator@D@2@@std@@QEAA@AEBV?$allocator@D@1@@Z
	??0?$basic_string@DU?$char_traits@D@std@@V?$allocator@D@2@@std@@QEAA@QEBD@Z
	??0?$basic_string@DU?$char_traits@D@std@@V?$allocator@D@2@@std@@QEAA@QEBD_K@Z
	??0?$basic_string@DU?$char_traits@D@std@@V?$allocator@D@2@@std@@QEAA@U_String_constructor_concat_tag@1@AEAV01@1@Z
	??0?$basic_string@DU?$char_traits@D@std@@V?$allocator@D@2@@std@@QEAA@U_String_constructor_concat_tag@1@AEBV01@QEBD_K23@Z
	??0?$basic_string@DU?$char_traits@D@std@@V?$allocator@D@2@@std@@QEAA@XZ
	??0?$basic_string@_WU?$char_traits@_W@std@@V?$allocator@_W@2@@std@@QEAA@$$QEAV01@@Z
	??0?$basic_string@_WU?$char_traits@_W@std@@V?$allocator@_W@2@@std@@QEAA@AEBV01@@Z
	??0?$basic_string@_WU?$char_traits@_W@std@@V?$allocator@_W@2@@std@@QEAA@XZ
	??0?$basic_string_view@DU?$char_traits@D@std@@@std@@QEAA@QEBD@Z
	??0?$basic_string_view@DU?$char_traits@D@std@@@std@@QEAA@QEBD_K@Z
	??0?$basic_string_view@_WU?$char_traits@_W@std@@@std@@QEAA@QEB_W@Z
	??0?$basic_string_view@_WU?$char_traits@_W@std@@@std@@QEAA@QEB_W_K@Z
	??0?$initializer_list@V?$basic_string@DU?$char_traits@D@std@@V?$allocator@D@2@@std@@@std@@QEAA@PEBV?$basic_string@DU?$char_traits@D@std@@V?$allocator@D@2@@1@0@Z
	??0?$initializer_list@V?$vector@MV?$allocator@M@std@@@std@@@std@@QEAA@PEBV?$vector@MV?$allocator@M@std@@@1@0@Z
	??0?$initializer_list@_K@std@@QEAA@PEB_K0@Z
	??0?$lock_guard@Vmutex@std@@@std@@QEAA@AEAVmutex@1@@Z
	??0?$map@V?$basic_string@DU?$char_traits@D@std@@V?$allocator@D@2@@std@@VAny@ov@@U?$less@V?$basic_string@DU?$char_traits@D@std@@V?$allocator@D@2@@std@@@2@V?$allocator@U?$pair@$$CBV?$basic_string@DU?$char_traits@D@std@@V?$allocator@D@2@@std@@VAny@ov@@@std@@@2@@std@@QEAA@XZ
	??0?$shared_ptr@U_Dir_enum_impl@filesystem@std@@@std@@QEAA@$$QEAV01@@Z
	??0?$shared_ptr@U_Dir_enum_impl@filesystem@std@@@std@@QEAA@AEBV01@@Z
	??0?$shared_ptr@U_Dir_enum_impl@filesystem@std@@@std@@QEAA@XZ
	??0?$vector@DV?$allocator@D@std@@@std@@QEAA@XZ
	??0?$vector@DV?$allocator@D@std@@@std@@QEAA@_KAEBV?$allocator@D@1@@Z
	??0?$vector@HV?$allocator@H@std@@@std@@QEAA@$$QEAV01@@Z
	??0?$vector@HV?$allocator@H@std@@@std@@QEAA@AEBV01@@Z
	??0?$vector@HV?$allocator@H@std@@@std@@QEAA@XZ
	??0?$vector@MV?$allocator@M@std@@@std@@QEAA@$$QEAV01@@Z
	??0?$vector@MV?$allocator@M@std@@@std@@QEAA@AEBV01@@Z
	??0?$vector@MV?$allocator@M@std@@@std@@QEAA@XZ
	??0?$vector@PEADV?$allocator@PEAD@std@@@std@@QEAA@_KAEBV?$allocator@PEAD@1@@Z
	??0?$vector@PEBDV?$allocator@PEBD@std@@@std@@QEAA@XZ
	??0?$vector@UImageInput@@V?$allocator@UImageInput@@@std@@@std@@QEAA@XZ
	??0?$vector@V?$Output@$$CBVNode@ov@@@ov@@V?$allocator@V?$Output@$$CBVNode@ov@@@ov@@@std@@@std@@QEAA@AEBV01@@Z
	??0?$vector@V?$basic_string@DU?$char_traits@D@std@@V?$allocator@D@2@@std@@V?$allocator@V?$basic_string@DU?$char_traits@D@std@@V?$allocator@D@2@@std@@@2@@std@@QEAA@$$QEAV01@@Z
	??0?$vector@V?$basic_string@DU?$char_traits@D@std@@V?$allocator@D@2@@std@@V?$allocator@V?$basic_string@DU?$char_traits@D@std@@V?$allocator@D@2@@std@@@2@@std@@QEAA@V?$initializer_list@V?$basic_string@DU?$char_traits@D@std@@V?$allocator@D@2@@std@@@1@AEBV?$allocator@V?$basic_string@DU?$char_traits@D@std@@V?$allocator@D@2@@std@@@1@@Z
	??0?$vector@V?$basic_string@DU?$char_traits@D@std@@V?$allocator@D@2@@std@@V?$allocator@V?$basic_string@DU?$char_traits@D@std@@V?$allocator@D@2@@std@@@2@@std@@QEAA@XZ
	??0?$vector@V?$vector@DV?$allocator@D@std@@@std@@V?$allocator@V?$vector@DV?$allocator@D@std@@@std@@@2@@std@@QEAA@_KAEBV?$allocator@V?$vector@DV?$allocator@D@std@@@std@@@1@@Z
	??0?$vector@V?$vector@HV?$allocator@H@std@@@std@@V?$allocator@V?$vector@HV?$allocator@H@std@@@std@@@2@@std@@QEAA@XZ
	??0?$vector@V?$vector@MV?$allocator@M@std@@@std@@V?$allocator@V?$vector@MV?$allocator@M@std@@@std@@@2@@std@@QEAA@$$QEAV01@@Z
	??0?$vector@V?$vector@MV?$allocator@M@std@@@std@@V?$allocator@V?$vector@MV?$allocator@M@std@@@std@@@2@@std@@QEAA@V?$initializer_list@V?$vector@MV?$allocator@M@std@@@std@@@1@AEBV?$allocator@V?$vector@MV?$allocator@M@std@@@std@@@1@@Z
	??0?$vector@V?$vector@MV?$allocator@M@std@@@std@@V?$allocator@V?$vector@MV?$allocator@M@std@@@std@@@2@@std@@QEAA@XZ
	??0ChineseCLIPProcessor@@QEAA@AEBV?$basic_string@DU?$char_traits@D@std@@V?$allocator@D@2@@std@@0@Z
	??0ImageInput@@QEAA@$$QEAU0@@Z
	??0MeetingManager@@AEAA@XZ
	??0VLMProcessor@@QEAA@AEBV?$basic_string@DU?$char_traits@D@std@@V?$allocator@D@2@@std@@0I0@Z
	??0_Bxty@?$_String_val@U?$_Simple_types@D@std@@@std@@QEAA@XZ
	??0_Bxty@?$_String_val@U?$_Simple_types@_W@std@@@std@@QEAA@XZ
	??0_Creator@_Dir_enum_impl@filesystem@std@@QEAA@AEBVpath@23@W4directory_options@23@@Z
	??0_Dir_enum_impl@filesystem@std@@QEAA@$$QEAU_Creator@012@W4directory_options@12@@Z
	??0_Fake_proxy_ptr_impl@std@@QEAA@AEBU_Fake_allocator@1@AEBU_Container_base0@1@@Z
	??0_File_status_and_error@filesystem@std@@QEAA@XZ
	??0_Find_file_handle@filesystem@std@@QEAA@$$QEAU012@@Z
	??0_Find_file_handle@filesystem@std@@QEAA@XZ
	??0_Mutex_base@std@@QEAA@H@Z
	??0_Ref_count_base@std@@IEAA@XZ
	??0_Sentry_base@?$basic_ostream@DU?$char_traits@D@std@@@std@@QEAA@AEAV12@@Z
	??0_System_error@std@@IEAA@Verror_code@1@@Z
	??0_System_error@std@@IEAA@Verror_code@1@AEBV?$basic_string@DU?$char_traits@D@std@@V?$allocator@D@2@@1@@Z
	??0_System_error@std@@QEAA@AEBV01@@Z
	??0_System_error_message@std@@QEAA@K@Z
	??0bad_alloc@std@@AEAA@QEBD@Z
	??0bad_alloc@std@@QEAA@AEBV01@@Z
	??0bad_array_new_length@std@@QEAA@AEBV01@@Z
	??0bad_array_new_length@std@@QEAA@XZ
	??0directory_entry@filesystem@std@@QEAA@XZ
	??0directory_iterator@filesystem@std@@QEAA@$$QEAV012@@Z
	??0directory_iterator@filesystem@std@@QEAA@AEBV012@@Z
	??0directory_iterator@filesystem@std@@QEAA@AEBVpath@12@@Z
	??0directory_iterator@filesystem@std@@QEAA@XZ
	??0error_code@std@@QEAA@HAEBVerror_category@1@@Z
	??0error_code@std@@QEAA@XZ
	??0error_condition@std@@QEAA@HAEBVerror_category@1@@Z
	??0exception@std@@QEAA@AEBV01@@Z
	??0exception@std@@QEAA@QEBD@Z
	??0exception@std@@QEAA@QEBDH@Z
	??0file_status@filesystem@std@@QEAA@XZ
	??0filesystem_error@filesystem@std@@QEAA@AEBV012@@Z
	??0filesystem_error@filesystem@std@@QEAA@AEBV?$basic_string@DU?$char_traits@D@std@@V?$allocator@D@2@@2@AEBVpath@12@Verror_code@2@@Z
	??0filesystem_error@filesystem@std@@QEAA@AEBV?$basic_string@DU?$char_traits@D@std@@V?$allocator@D@2@@2@Verror_code@2@@Z
	??0mutex@std@@QEAA@XZ
	??0path@filesystem@std@@QEAA@AEBV012@@Z
	??0path@filesystem@std@@QEAA@XZ
	??0runtime_error@std@@QEAA@AEBV01@@Z
	??0runtime_error@std@@QEAA@AEBV?$basic_string@DU?$char_traits@D@std@@V?$allocator@D@2@@1@@Z
	??0runtime_error@std@@QEAA@PEBD@Z
	??0sentry@?$basic_ostream@DU?$char_traits@D@std@@@std@@QEAA@AEAV12@@Z
	??0system_error@std@@QEAA@AEBV01@@Z
	??0system_error@std@@QEAA@Verror_code@1@@Z
	??0system_error@std@@QEAA@Verror_code@1@AEBV?$basic_string@DU?$char_traits@D@std@@V?$allocator@D@2@@1@@Z
	??1?$_Compressed_pair@V?$allocator@D@std@@V?$_String_val@U?$_Simple_types@D@std@@@2@$00@std@@QEAA@XZ
	??1?$_Compressed_pair@V?$allocator@_W@std@@V?$_String_val@U?$_Simple_types@_W@std@@@2@$00@std@@QEAA@XZ
	??1?$_Ref_count_obj2@U_Dir_enum_impl@filesystem@std@@@std@@UEAA@XZ
	??1?$_String_val@U?$_Simple_types@D@std@@@std@@QEAA@XZ
	??1?$_String_val@U?$_Simple_types@_W@std@@@std@@QEAA@XZ
	??1?$_Tidy_guard@V?$vector@DV?$allocator@D@std@@@std@@@std@@QEAA@XZ
	??1?$_Tidy_guard@V?$vector@HV?$allocator@H@std@@@std@@@std@@QEAA@XZ
	??1?$_Tidy_guard@V?$vector@IV?$allocator@I@std@@@std@@@std@@QEAA@XZ
	??1?$_Tidy_guard@V?$vector@MV?$allocator@M@std@@@std@@@std@@QEAA@XZ
	??1?$_Tidy_guard@V?$vector@PEADV?$allocator@PEAD@std@@@std@@@std@@QEAA@XZ
	??1?$_Tidy_guard@V?$vector@V?$Output@$$CBVNode@ov@@@ov@@V?$allocator@V?$Output@$$CBVNode@ov@@@ov@@@std@@@std@@@std@@QEAA@XZ
	??1?$_Tidy_guard@V?$vector@V?$basic_string@DU?$char_traits@D@std@@V?$allocator@D@2@@std@@V?$allocator@V?$basic_string@DU?$char_traits@D@std@@V?$allocator@D@2@@std@@@2@@std@@@std@@QEAA@XZ
	??1?$_Tidy_guard@V?$vector@V?$vector@DV?$allocator@D@std@@@std@@V?$allocator@V?$vector@DV?$allocator@D@std@@@std@@@2@@std@@@std@@QEAA@XZ
	??1?$_Tidy_guard@V?$vector@V?$vector@MV?$allocator@M@std@@@std@@V?$allocator@V?$vector@MV?$allocator@M@std@@@std@@@2@@std@@@std@@QEAA@XZ
	??1?$_Tree@V?$_Tmap_traits@V?$basic_string@DU?$char_traits@D@std@@V?$allocator@D@2@@std@@VAny@ov@@U?$less@V?$basic_string@DU?$char_traits@D@std@@V?$allocator@D@2@@std@@@2@V?$allocator@U?$pair@$$CBV?$basic_string@DU?$char_traits@D@std@@V?$allocator@D@2@@std@@VAny@ov@@@std@@@2@$0A@@std@@@std@@QEAA@XZ
	??1?$_Uninitialized_backout_al@V?$allocator@D@std@@@std@@QEAA@XZ
	??1?$_Uninitialized_backout_al@V?$allocator@H@std@@@std@@QEAA@XZ
	??1?$_Uninitialized_backout_al@V?$allocator@I@std@@@std@@QEAA@XZ
	??1?$_Uninitialized_backout_al@V?$allocator@M@std@@@std@@QEAA@XZ
	??1?$_Uninitialized_backout_al@V?$allocator@PEAD@std@@@std@@QEAA@XZ
	??1?$_Uninitialized_backout_al@V?$allocator@PEBD@std@@@std@@QEAA@XZ
	??1?$_Uninitialized_backout_al@V?$allocator@UImageInput@@@std@@@std@@QEAA@XZ
	??1?$_Uninitialized_backout_al@V?$allocator@V?$Output@$$CBVNode@ov@@@ov@@@std@@@std@@QEAA@XZ
	??1?$_Uninitialized_backout_al@V?$allocator@V?$basic_string@DU?$char_traits@D@std@@V?$allocator@D@2@@std@@@std@@@std@@QEAA@XZ
	??1?$_Uninitialized_backout_al@V?$allocator@V?$vector@DV?$allocator@D@std@@@std@@@std@@@std@@QEAA@XZ
	??1?$_Uninitialized_backout_al@V?$allocator@V?$vector@HV?$allocator@H@std@@@std@@@std@@@std@@QEAA@XZ
	??1?$_Uninitialized_backout_al@V?$allocator@V?$vector@MV?$allocator@M@std@@@std@@@std@@@std@@QEAA@XZ
	??1?$basic_string@DU?$char_traits@D@std@@V?$allocator@D@2@@std@@QEAA@XZ
	??1?$basic_string@_WU?$char_traits@_W@std@@V?$allocator@_W@2@@std@@QEAA@XZ
	??1?$lock_guard@Vmutex@std@@@std@@QEAA@XZ
	??1?$map@V?$basic_string@DU?$char_traits@D@std@@V?$allocator@D@2@@std@@VAny@ov@@U?$less@V?$basic_string@DU?$char_traits@D@std@@V?$allocator@D@2@@std@@@2@V?$allocator@U?$pair@$$CBV?$basic_string@DU?$char_traits@D@std@@V?$allocator@D@2@@std@@VAny@ov@@@std@@@2@@std@@QEAA@XZ
	??1?$pair@$$CBV?$basic_string@DU?$char_traits@D@std@@V?$allocator@D@2@@std@@VAny@ov@@@std@@QEAA@XZ
	??1?$shared_ptr@$$CBVModel@ov@@@std@@QEAA@XZ
	??1?$shared_ptr@U_Dir_enum_impl@filesystem@std@@@std@@QEAA@XZ
	??1?$shared_ptr@VModel@ov@@@std@@QEAA@XZ
	??1?$unique_ptr@VChineseCLIPProcessor@@U?$default_delete@VChineseCLIPProcessor@@@std@@@std@@QEAA@XZ
	??1?$unique_ptr@VCompiledModel@ov@@U?$default_delete@VCompiledModel@ov@@@std@@@std@@QEAA@XZ
	??1?$unique_ptr@VCore@ov@@U?$default_delete@VCore@ov@@@std@@@std@@QEAA@XZ
	??1?$unique_ptr@VSentencePieceProcessor@sentencepiece@@U?$default_delete@VSentencePieceProcessor@sentencepiece@@@std@@@std@@QEAA@XZ
	??1?$unique_ptr@VVLMProcessor@@U?$default_delete@VVLMProcessor@@@std@@@std@@QEAA@XZ
	??1?$vector@DV?$allocator@D@std@@@std@@QEAA@XZ
	??1?$vector@HV?$allocator@H@std@@@std@@QEAA@XZ
	??1?$vector@IV?$allocator@I@std@@@std@@QEAA@XZ
	??1?$vector@MV?$allocator@M@std@@@std@@QEAA@XZ
	??1?$vector@PEADV?$allocator@PEAD@std@@@std@@QEAA@XZ
	??1?$vector@PEBDV?$allocator@PEBD@std@@@std@@QEAA@XZ
	??1?$vector@UImageInput@@V?$allocator@UImageInput@@@std@@@std@@QEAA@XZ
	??1?$vector@V?$Output@$$CBVNode@ov@@@ov@@V?$allocator@V?$Output@$$CBVNode@ov@@@ov@@@std@@@std@@QEAA@XZ
	??1?$vector@V?$basic_string@DU?$char_traits@D@std@@V?$allocator@D@2@@std@@V?$allocator@V?$basic_string@DU?$char_traits@D@std@@V?$allocator@D@2@@std@@@2@@std@@QEAA@XZ
	??1?$vector@V?$vector@DV?$allocator@D@std@@@std@@V?$allocator@V?$vector@DV?$allocator@D@std@@@std@@@2@@std@@QEAA@XZ
	??1?$vector@V?$vector@HV?$allocator@H@std@@@std@@V?$allocator@V?$vector@HV?$allocator@H@std@@@std@@@2@@std@@QEAA@XZ
	??1?$vector@V?$vector@MV?$allocator@M@std@@@std@@V?$allocator@V?$vector@MV?$allocator@M@std@@@std@@@2@@std@@QEAA@XZ
	??1ChineseCLIPProcessor@@QEAA@XZ
	??1ImageInput@@QEAA@XZ
	??1MeetingManager@@AEAA@XZ
	??1VLMProcessor@@QEAA@XZ
	??1_Bxty@?$_String_val@U?$_Simple_types@D@std@@@std@@QEAA@XZ
	??1_Bxty@?$_String_val@U?$_Simple_types@_W@std@@@std@@QEAA@XZ
	??1_Creator@_Dir_enum_impl@filesystem@std@@QEAA@XZ
	??1_Dir_enum_impl@filesystem@std@@QEAA@XZ
	??1_Find_file_handle@filesystem@std@@QEAA@XZ
	??1_Generic_error_category@std@@UEAA@XZ
	??1_Reallocation_guard@?$vector@DV?$allocator@D@std@@@std@@QEAA@XZ
	??1_Reallocation_guard@?$vector@HV?$allocator@H@std@@@std@@QEAA@XZ
	??1_Reallocation_guard@?$vector@MV?$allocator@M@std@@@std@@QEAA@XZ
	??1_Reallocation_guard@?$vector@PEBDV?$allocator@PEBD@std@@@std@@QEAA@XZ
	??1_Reallocation_guard@?$vector@UImageInput@@V?$allocator@UImageInput@@@std@@@std@@QEAA@XZ
	??1_Reallocation_guard@?$vector@V?$basic_string@DU?$char_traits@D@std@@V?$allocator@D@2@@std@@V?$allocator@V?$basic_string@DU?$char_traits@D@std@@V?$allocator@D@2@@std@@@2@@std@@QEAA@XZ
	??1_Reallocation_guard@?$vector@V?$vector@HV?$allocator@H@std@@@std@@V?$allocator@V?$vector@HV?$allocator@H@std@@@std@@@2@@std@@QEAA@XZ
	??1_Reallocation_guard@?$vector@V?$vector@MV?$allocator@M@std@@@std@@V?$allocator@V?$vector@MV?$allocator@M@std@@@std@@@2@@std@@QEAA@XZ
	??1_Ref_count_base@std@@UEAA@XZ
	??1_Sentry_base@?$basic_ostream@DU?$char_traits@D@std@@@std@@QEAA@XZ
	??1_System_error@std@@UEAA@XZ
	??1_System_error_category@std@@UEAA@XZ
	??1_System_error_message@std@@QEAA@XZ
	??1bad_alloc@std@@UEAA@XZ
	??1bad_array_new_length@std@@UEAA@XZ
	??1directory_entry@filesystem@std@@QEAA@XZ
	??1directory_iterator@filesystem@std@@QEAA@XZ
	??1error_category@std@@UEAA@XZ
	??1exception@std@@UEAA@XZ
	??1filesystem_error@filesystem@std@@UEAA@XZ
	??1path@filesystem@std@@QEAA@XZ
	??1runtime_error@std@@UEAA@XZ
	??1sentry@?$basic_ostream@DU?$char_traits@D@std@@@std@@QEAA@XZ
	??1system_error@std@@UEAA@XZ
	??2@YAPEAX_KPEAX@Z
	??4?$basic_string@DU?$char_traits@D@std@@V?$allocator@D@2@@std@@QEAAAEAV01@$$QEAV01@@Z
	??4?$basic_string@DU?$char_traits@D@std@@V?$allocator@D@2@@std@@QEAAAEAV01@QEBD@Z
	??4?$basic_string@_WU?$char_traits@_W@std@@V?$allocator@_W@2@@std@@QEAAAEAV01@$$QEAV01@@Z
	??4?$basic_string@_WU?$char_traits@_W@std@@V?$allocator@_W@2@@std@@QEAAAEAV01@AEBV01@@Z
	??4?$shared_ptr@U_Dir_enum_impl@filesystem@std@@@std@@QEAAAEAV01@$$QEAV01@@Z
	??4path@filesystem@std@@QEAAAEAV012@$$QEAV012@@Z
	??4path@filesystem@std@@QEAAAEAV012@AEBV012@@Z
	??8?$_Vector_const_iterator@V?$_Vector_val@U?$_Simple_types@V?$basic_string@DU?$char_traits@D@std@@V?$allocator@D@2@@std@@@std@@@std@@@std@@QEBA_NAEBV01@@Z
	??8error_category@std@@QEBA_NAEBV01@@Z
	??8std@@YA_NAEBVerror_condition@0@0@Z
	??9?$_Vector_const_iterator@V?$_Vector_val@U?$_Simple_types@V?$basic_string@DU?$char_traits@D@std@@V?$allocator@D@2@@std@@@std@@@std@@@std@@QEBA_NAEBV01@@Z
	??9directory_iterator@filesystem@std@@QEBA_NAEBV012@@Z
	??A?$basic_string@DU?$char_traits@D@std@@V?$allocator@D@2@@std@@QEBAAEBD_K@Z
	??A?$vector@HV?$allocator@H@std@@@std@@QEAAAEAH_K@Z
	??A?$vector@IV?$allocator@I@std@@@std@@QEAAAEAI_K@Z
	??A?$vector@MV?$allocator@M@std@@@std@@QEAAAEAM_K@Z
	??A?$vector@MV?$allocator@M@std@@@std@@QEBAAEBM_K@Z
	??A?$vector@PEADV?$allocator@PEAD@std@@@std@@QEAAAEAPEAD_K@Z
	??A?$vector@V?$basic_string@DU?$char_traits@D@std@@V?$allocator@D@2@@std@@V?$allocator@V?$basic_string@DU?$char_traits@D@std@@V?$allocator@D@2@@std@@@2@@std@@QEAAAEAV?$basic_string@DU?$char_traits@D@std@@V?$allocator@D@2@@1@_K@Z
	??A?$vector@V?$basic_string@DU?$char_traits@D@std@@V?$allocator@D@2@@std@@V?$allocator@V?$basic_string@DU?$char_traits@D@std@@V?$allocator@D@2@@std@@@2@@std@@QEBAAEBV?$basic_string@DU?$char_traits@D@std@@V?$allocator@D@2@@1@_K@Z
	??A?$vector@V?$vector@DV?$allocator@D@std@@@std@@V?$allocator@V?$vector@DV?$allocator@D@std@@@std@@@2@@std@@QEAAAEAV?$vector@DV?$allocator@D@std@@@1@_K@Z
	??A?$vector@V?$vector@HV?$allocator@H@std@@@std@@V?$allocator@V?$vector@HV?$allocator@H@std@@@std@@@2@@std@@QEAAAEAV?$vector@HV?$allocator@H@std@@@1@_K@Z
	??A?$vector@V?$vector@MV?$allocator@M@std@@@std@@V?$allocator@V?$vector@MV?$allocator@M@std@@@std@@@2@@std@@QEAAAEAV?$vector@MV?$allocator@M@std@@@1@_K@Z
	??B?$basic_string@DU?$char_traits@D@std@@V?$allocator@D@2@@std@@QEBA?AV?$basic_string_view@DU?$char_traits@D@std@@@1@XZ
	??B?$basic_string@_WU?$char_traits@_W@std@@V?$allocator@_W@2@@std@@QEBA?AV?$basic_string_view@_WU?$char_traits@_W@std@@@1@XZ
	??B?$unique_ptr@URep@Status@util@sentencepiece@@U?$default_delete@URep@Status@util@sentencepiece@@@std@@@std@@QEBA_NXZ
	??B?$unique_ptr@VChineseCLIPProcessor@@U?$default_delete@VChineseCLIPProcessor@@@std@@@std@@QEBA_NXZ
	??B?$unique_ptr@VCompiledModel@ov@@U?$default_delete@VCompiledModel@ov@@@std@@@std@@QEBA_NXZ
	??B?$unique_ptr@VCore@ov@@U?$default_delete@VCore@ov@@@std@@@std@@QEBA_NXZ
	??B?$unique_ptr@VSentencePieceProcessor@sentencepiece@@U?$default_delete@VSentencePieceProcessor@sentencepiece@@@std@@@std@@QEBA_NXZ
	??B?$unique_ptr@VVLMProcessor@@U?$default_delete@VVLMProcessor@@@std@@@std@@QEBA_NXZ
	??Berror_code@std@@QEBA_NXZ
	??Bsentry@?$basic_ostream@DU?$char_traits@D@std@@@std@@QEBA_NXZ
	??C?$unique_ptr@VChineseCLIPProcessor@@U?$default_delete@VChineseCLIPProcessor@@@std@@@std@@QEBAPEAVChineseCLIPProcessor@@XZ
	??C?$unique_ptr@VCompiledModel@ov@@U?$default_delete@VCompiledModel@ov@@@std@@@std@@QEBAPEAVCompiledModel@ov@@XZ
	??C?$unique_ptr@VCore@ov@@U?$default_delete@VCore@ov@@@std@@@std@@QEBAPEAVCore@ov@@XZ
	??C?$unique_ptr@VSentencePieceProcessor@sentencepiece@@U?$default_delete@VSentencePieceProcessor@sentencepiece@@@std@@@std@@QEBAPEAVSentencePieceProcessor@sentencepiece@@XZ
	??C?$unique_ptr@VVLMProcessor@@U?$default_delete@VVLMProcessor@@@std@@@std@@QEBAPEAVVLMProcessor@@XZ
	??Ddirectory_iterator@filesystem@std@@QEBAAEBVdirectory_entry@12@XZ
	??Edirectory_iterator@filesystem@std@@QEAAAEAV012@XZ
	??I@YA?AW4__std_fs_file_attr@@W40@0@Z
	??I@YA?AW4__std_fs_stats_flags@@W40@0@Z
	??Ifilesystem@std@@YA?AW4directory_options@01@W4201@0@Z
	??R<lambda_25953b27f3c43b57ba59f021c7f225c5>@@SA@QEA_WQEB_W_K_W@Z
	??R<lambda_319d5e083f45f90dcdce5dce53cbb275>@@SA@QEADQEBD_KD@Z
	??R<lambda_6e107f859707de1a71dcca60860853b1>@@SA@QEADQEBD_K12@Z
	??R<lambda_9013ee9e23efe4882b67eff5b0ecf103>@@SA@QEADQEBD_K@Z
	??R<lambda_942448a5eca1a40cdf35e7a483deabf2>@@SA@QEA_WQEB_W_K12@Z
	??R<lambda_9fb449e582d5374755335d8f6d90ae34>@@SA@QEA_W_KQEB_W@Z
	??R<lambda_a132b9f505f015b07a26cb4edca31da2>@@SA@QEAD_KQEBD@Z
	??R<lambda_a3050a43f3157934f354774ab3dd2e02>@@SA@QEA_WQEB_W_K2_W@Z
	??R<lambda_e1befb086ad3257e3f042a63030725f7>@@SA@QEADQEBD_K2D@Z
	??R<lambda_e9b99a188f9a316a73b83d1e72db26de>@@SA@QEADQEBD_K212@Z
	??R?$default_delete@VChineseCLIPProcessor@@@std@@QEBAXPEAVChineseCLIPProcessor@@@Z
	??R?$default_delete@VCompiledModel@ov@@@std@@QEBAXPEAVCompiledModel@ov@@@Z
	??R?$default_delete@VCore@ov@@@std@@QEBAXPEAVCore@ov@@@Z
	??R?$default_delete@VSentencePieceProcessor@sentencepiece@@@std@@QEBAXPEAVSentencePieceProcessor@sentencepiece@@@Z
	??R?$default_delete@VVLMProcessor@@@std@@QEBAXPEAVVLMProcessor@@@Z
	??R_Is_slash_oper@filesystem@std@@SA_N_W@Z
	??U@YA?AW4__std_fs_stats_flags@@W40@0@Z
	??Y?$basic_string@DU?$char_traits@D@std@@V?$allocator@D@2@@std@@QEAAAEAV01@AEBV01@@Z
	??Y?$basic_string@DU?$char_traits@D@std@@V?$allocator@D@2@@std@@QEAAAEAV01@D@Z
	??_0path@filesystem@std@@QEAAAEAV012@AEBV012@@Z
	??_5@YAAEAW4__std_fs_stats_flags@@AEAW40@W40@@Z
	??_7?$_Ref_count_obj2@U_Dir_enum_impl@filesystem@std@@@std@@6B@
	??_7_Generic_error_category@std@@6B@
	??_7_System_error@std@@6B@
	??_7_System_error_category@std@@6B@
	??_7bad_alloc@std@@6B@
	??_7bad_array_new_length@std@@6B@
	??_7exception@std@@6B@
	??_7filesystem_error@filesystem@std@@6B@
	??_7runtime_error@std@@6B@
	??_7system_error@std@@6B@
	??__Ksv@string_view_literals@literals@std@@YA?AV?$basic_string_view@DU?$char_traits@D@std@@@3@PEBD_K@Z
	??__Ksv@string_view_literals@literals@std@@YA?AV?$basic_string_view@_WU?$char_traits@_W@std@@@3@PEB_W_K@Z
	?CLIP_CosineSimilarity@MeetingManager@@QEAAMAEBV?$vector@MV?$allocator@M@std@@@std@@0@Z
	?CLIP_EncodeImage@MeetingManager@@QEAA?AV?$vector@V?$vector@MV?$allocator@M@std@@@std@@V?$allocator@V?$vector@MV?$allocator@M@std@@@std@@@2@@std@@AEBV?$vector@V?$basic_string@DU?$char_traits@D@std@@V?$allocator@D@2@@std@@V?$allocator@V?$basic_string@DU?$char_traits@D@std@@V?$allocator@D@2@@std@@@2@@3@@Z
	?CLIP_EncodeText@MeetingManager@@QEAA?AV?$vector@V?$vector@MV?$allocator@M@std@@@std@@V?$allocator@V?$vector@MV?$allocator@M@std@@@std@@@2@@std@@AEBV?$vector@V?$basic_string@DU?$char_traits@D@std@@V?$allocator@D@2@@std@@V?$allocator@V?$basic_string@DU?$char_traits@D@std@@V?$allocator@D@2@@std@@@2@@3@@Z
	?Cleanup@MeetingManager@@QEAAXXZ
	?CleanupChineseCLIPModule@MeetingManager@@AEAAXXZ
	?CleanupVLMModule@MeetingManager@@AEAAXXZ
	?ComputeAverageEmbedding@ChineseCLIPProcessor@@AEAA?AV?$vector@MV?$allocator@M@std@@@std@@AEBV?$vector@V?$vector@MV?$allocator@M@std@@@std@@V?$allocator@V?$vector@MV?$allocator@M@std@@@std@@@2@@3@@Z
	?CosineSimilarity@ChineseCLIPProcessor@@QEAAMAEBV?$vector@MV?$allocator@M@std@@@std@@0@Z
	?CreateModel@VLMProcessor@@AEAA_NIAEBV?$basic_string@DU?$char_traits@D@std@@V?$allocator@D@2@@std@@I@Z
	?EncodeImage@ChineseCLIPProcessor@@QEAA?AV?$vector@V?$vector@MV?$allocator@M@std@@@std@@V?$allocator@V?$vector@MV?$allocator@M@std@@@std@@@2@@std@@AEBV?$vector@V?$basic_string@DU?$char_traits@D@std@@V?$allocator@D@2@@std@@V?$allocator@V?$basic_string@DU?$char_traits@D@std@@V?$allocator@D@2@@std@@@2@@3@@Z
	?EncodeText@ChineseCLIPProcessor@@QEAA?AV?$vector@V?$vector@MV?$allocator@M@std@@@std@@V?$allocator@V?$vector@MV?$allocator@M@std@@@std@@@2@@std@@AEBV?$vector@V?$basic_string@DU?$char_traits@D@std@@V?$allocator@D@2@@std@@V?$allocator@V?$basic_string@DU?$char_traits@D@std@@V?$allocator@D@2@@std@@@2@@3@@Z
	?GetImagePaths@MeetingManager@@QEAA?AV?$vector@V?$basic_string@DU?$char_traits@D@std@@V?$allocator@D@2@@std@@V?$allocator@V?$basic_string@DU?$char_traits@D@std@@V?$allocator@D@2@@std@@@2@@std@@AEBV?$basic_string@DU?$char_traits@D@std@@V?$allocator@D@2@@3@@Z
	?GetInstance@MeetingManager@@SAAEAV1@XZ
	?Inference@VLMProcessor@@QEAA?AV?$vector@V?$basic_string@DU?$char_traits@D@std@@V?$allocator@D@2@@std@@V?$allocator@V?$basic_string@DU?$char_traits@D@std@@V?$allocator@D@2@@std@@@2@@std@@AEBV?$vector@UImageInput@@V?$allocator@UImageInput@@@std@@@3@AEBV?$basic_string@DU?$char_traits@D@std@@V?$allocator@D@2@@3@@Z
	?InferenceText@VLMProcessor@@QEAA?AV?$basic_string@DU?$char_traits@D@std@@V?$allocator@D@2@@std@@AEBV23@@Z
	?Initialize@MeetingManager@@QEAA_NAEBV?$basic_string@DU?$char_traits@D@std@@V?$allocator@D@2@@std@@@Z
	?InitializeChineseCLIPModule@MeetingManager@@AEAA_NXZ
	?InitializeModels@ChineseCLIPProcessor@@AEAA_NXZ
	?InitializeTokenizer@ChineseCLIPProcessor@@AEAA_NXZ
	?InitializeVLMModule@MeetingManager@@AEAA_NXZ
	?IsInitialized@ChineseCLIPProcessor@@QEBA_NXZ
	?IsInitialized@MeetingManager@@QEBA_NXZ
	?IsInitialized@VLMProcessor@@QEBA_NXZ
	?LoadLibraryA@VLMProcessor@@AEAA_NAEBV?$basic_string@DU?$char_traits@D@std@@V?$allocator@D@2@@std@@@Z
	?NormalizeVector@ChineseCLIPProcessor@@AEAAXAEAV?$vector@MV?$allocator@M@std@@@std@@@Z
	?PreprocessImage@ChineseCLIPProcessor@@AEAA_NAEBV?$basic_string@DU?$char_traits@D@std@@V?$allocator@D@2@@std@@AEAV?$vector@MV?$allocator@M@std@@@3@@Z
	?PreprocessText@ChineseCLIPProcessor@@AEAA_NAEBV?$vector@V?$basic_string@DU?$char_traits@D@std@@V?$allocator@D@2@@std@@V?$allocator@V?$basic_string@DU?$char_traits@D@std@@V?$allocator@D@2@@std@@@2@@std@@AEAV?$vector@V?$vector@HV?$allocator@H@std@@@std@@V?$allocator@V?$vector@HV?$allocator@H@std@@@std@@@2@@3@1@Z
	?ReleaseModel@VLMProcessor@@AEAAXXZ
	?ReleaseModels@ChineseCLIPProcessor@@AEAA_NXZ
	?ReleaseTokenizer@ChineseCLIPProcessor@@AEAA_NXZ
	?TokenizeText@ChineseCLIPProcessor@@AEAA_NAEBV?$basic_string@DU?$char_traits@D@std@@V?$allocator@D@2@@std@@AEAV?$vector@HV?$allocator@H@std@@@3@1@Z
	?TokenizeTexts@ChineseCLIPProcessor@@AEAA_NAEBV?$vector@V?$basic_string@DU?$char_traits@D@std@@V?$allocator@D@2@@std@@V?$allocator@V?$basic_string@DU?$char_traits@D@std@@V?$allocator@D@2@@std@@@2@@std@@AEAV?$vector@V?$vector@HV?$allocator@H@std@@@std@@V?$allocator@V?$vector@HV?$allocator@H@std@@@std@@@2@@3@1@Z
	?UnloadLibrary@VLMProcessor@@AEAAXXZ
	?VLM_InferenceImages@MeetingManager@@QEAA?AV?$vector@V?$basic_string@DU?$char_traits@D@std@@V?$allocator@D@2@@std@@V?$allocator@V?$basic_string@DU?$char_traits@D@std@@V?$allocator@D@2@@std@@@2@@std@@AEBV?$vector@UImageInput@@V?$allocator@UImageInput@@@std@@@3@AEBV?$basic_string@DU?$char_traits@D@std@@V?$allocator@D@2@@3@@Z
	?VLM_InferenceText@MeetingManager@@QEAA?AV?$basic_string@DU?$char_traits@D@std@@V?$allocator@D@2@@std@@AEBV23@@Z
	?_Activate_SSO_buffer@?$_String_val@U?$_Simple_types@D@std@@@std@@QEAAXXZ
	?_Activate_SSO_buffer@?$_String_val@U?$_Simple_types@_W@std@@@std@@QEAAXXZ
	?_Adjust_manually_vector_aligned@std@@YAXAEAPEAXAEA_K@Z
	?_Adopt@_Iterator_base0@std@@QEAAXPEBX@Z
	?_Advance_and_reset_if_no_more_files@_Dir_enum_impl@filesystem@std@@SA?AW4__std_win_error@@AEAV?$shared_ptr@U_Dir_enum_impl@filesystem@std@@@3@@Z
	?_Alloc_proxy@_Container_base0@std@@QEAAXAEBU_Fake_allocator@2@@Z
	?_Alloc_sentinel_and_proxy@?$_Tree@V?$_Tmap_traits@V?$basic_string@DU?$char_traits@D@std@@V?$allocator@D@2@@std@@VAny@ov@@U?$less@V?$basic_string@DU?$char_traits@D@std@@V?$allocator@D@2@@std@@@2@V?$allocator@U?$pair@$$CBV?$basic_string@DU?$char_traits@D@std@@V?$allocator@D@2@@std@@VAny@ov@@@std@@@2@$0A@@std@@@std@@IEAAXXZ
	?_Allocate@_Default_allocate_traits@std@@SAPEAX_K@Z
	?_Become_small@?$basic_string@DU?$char_traits@D@std@@V?$allocator@D@2@@std@@AEAAXXZ
	?_Buy_nonzero@?$vector@DV?$allocator@D@std@@@std@@AEAAX_K@Z
	?_Buy_nonzero@?$vector@HV?$allocator@H@std@@@std@@AEAAX_K@Z
	?_Buy_nonzero@?$vector@IV?$allocator@I@std@@@std@@AEAAX_K@Z
	?_Buy_nonzero@?$vector@MV?$allocator@M@std@@@std@@AEAAX_K@Z
	?_Buy_nonzero@?$vector@PEADV?$allocator@PEAD@std@@@std@@AEAAX_K@Z
	?_Buy_nonzero@?$vector@V?$Output@$$CBVNode@ov@@@ov@@V?$allocator@V?$Output@$$CBVNode@ov@@@ov@@@std@@@std@@AEAAX_K@Z
	?_Buy_nonzero@?$vector@V?$basic_string@DU?$char_traits@D@std@@V?$allocator@D@2@@std@@V?$allocator@V?$basic_string@DU?$char_traits@D@std@@V?$allocator@D@2@@std@@@2@@std@@AEAAX_K@Z
	?_Buy_nonzero@?$vector@V?$vector@DV?$allocator@D@std@@@std@@V?$allocator@V?$vector@DV?$allocator@D@std@@@std@@@2@@std@@AEAAX_K@Z
	?_Buy_nonzero@?$vector@V?$vector@MV?$allocator@M@std@@@std@@V?$allocator@V?$vector@MV?$allocator@M@std@@@std@@@2@@std@@AEAAX_K@Z
	?_Buy_raw@?$vector@DV?$allocator@D@std@@@std@@AEAAX_K@Z
	?_Buy_raw@?$vector@HV?$allocator@H@std@@@std@@AEAAX_K@Z
	?_Buy_raw@?$vector@IV?$allocator@I@std@@@std@@AEAAX_K@Z
	?_Buy_raw@?$vector@MV?$allocator@M@std@@@std@@AEAAX_K@Z
	?_Buy_raw@?$vector@PEADV?$allocator@PEAD@std@@@std@@AEAAX_K@Z
	?_Buy_raw@?$vector@V?$Output@$$CBVNode@ov@@@ov@@V?$allocator@V?$Output@$$CBVNode@ov@@@ov@@@std@@@std@@AEAAX_K@Z
	?_Buy_raw@?$vector@V?$basic_string@DU?$char_traits@D@std@@V?$allocator@D@2@@std@@V?$allocator@V?$basic_string@DU?$char_traits@D@std@@V?$allocator@D@2@@std@@@2@@std@@AEAAX_K@Z
	?_Buy_raw@?$vector@V?$vector@DV?$allocator@D@std@@@std@@V?$allocator@V?$vector@DV?$allocator@D@std@@@std@@@2@@std@@AEAAX_K@Z
	?_Buy_raw@?$vector@V?$vector@MV?$allocator@M@std@@@std@@V?$allocator@V?$vector@MV?$allocator@M@std@@@std@@@2@@std@@AEAAX_K@Z
	?_Calculate_growth@?$basic_string@DU?$char_traits@D@std@@V?$allocator@D@2@@std@@AEBA_K_K@Z
	?_Calculate_growth@?$basic_string@DU?$char_traits@D@std@@V?$allocator@D@2@@std@@CA_K_K00@Z
	?_Calculate_growth@?$basic_string@_WU?$char_traits@_W@std@@V?$allocator@_W@2@@std@@AEBA_K_K@Z
	?_Calculate_growth@?$basic_string@_WU?$char_traits@_W@std@@V?$allocator@_W@2@@std@@CA_K_K00@Z
	?_Calculate_growth@?$vector@DV?$allocator@D@std@@@std@@AEBA_K_K@Z
	?_Calculate_growth@?$vector@HV?$allocator@H@std@@@std@@AEBA_K_K@Z
	?_Calculate_growth@?$vector@MV?$allocator@M@std@@@std@@AEBA_K_K@Z
	?_Calculate_growth@?$vector@PEBDV?$allocator@PEBD@std@@@std@@AEBA_K_K@Z
	?_Calculate_growth@?$vector@UImageInput@@V?$allocator@UImageInput@@@std@@@std@@AEBA_K_K@Z
	?_Calculate_growth@?$vector@V?$basic_string@DU?$char_traits@D@std@@V?$allocator@D@2@@std@@V?$allocator@V?$basic_string@DU?$char_traits@D@std@@V?$allocator@D@2@@std@@@2@@std@@AEBA_K_K@Z
	?_Calculate_growth@?$vector@V?$vector@HV?$allocator@H@std@@@std@@V?$allocator@V?$vector@HV?$allocator@H@std@@@std@@@2@@std@@AEBA_K_K@Z
	?_Calculate_growth@?$vector@V?$vector@MV?$allocator@M@std@@@std@@V?$allocator@V?$vector@MV?$allocator@M@std@@@std@@@2@@std@@AEBA_K_K@Z
	?_Change_array@?$vector@DV?$allocator@D@std@@@std@@AEAAXQEAD_K1@Z
	?_Change_array@?$vector@HV?$allocator@H@std@@@std@@AEAAXQEAH_K1@Z
	?_Change_array@?$vector@MV?$allocator@M@std@@@std@@AEAAXQEAM_K1@Z
	?_Change_array@?$vector@PEBDV?$allocator@PEBD@std@@@std@@AEAAXQEAPEBD_K1@Z
	?_Change_array@?$vector@UImageInput@@V?$allocator@UImageInput@@@std@@@std@@AEAAXQEAUImageInput@@_K1@Z
	?_Change_array@?$vector@V?$basic_string@DU?$char_traits@D@std@@V?$allocator@D@2@@std@@V?$allocator@V?$basic_string@DU?$char_traits@D@std@@V?$allocator@D@2@@std@@@2@@std@@AEAAXQEAV?$basic_string@DU?$char_traits@D@std@@V?$allocator@D@2@@2@_K1@Z
	?_Change_array@?$vector@V?$vector@HV?$allocator@H@std@@@std@@V?$allocator@V?$vector@HV?$allocator@H@std@@@std@@@2@@std@@AEAAXQEAV?$vector@HV?$allocator@H@std@@@2@_K1@Z
	?_Change_array@?$vector@V?$vector@MV?$allocator@M@std@@@std@@V?$allocator@V?$vector@MV?$allocator@M@std@@@std@@@2@@std@@AEAAXQEAV?$vector@MV?$allocator@M@std@@@2@_K1@Z
	?_Check_convert_result@std@@YAHU__std_fs_convert_result@@@Z
	?_Check_offset@?$_String_val@U?$_Simple_types@D@std@@@std@@QEBAX_K@Z
	?_Check_offset@?$_String_val@U?$_Simple_types@_W@std@@@std@@QEBAX_K@Z
	?_Clamp_suffix_size@?$_String_val@U?$_Simple_types@D@std@@@std@@QEBA_K_K0@Z
	?_Compat@?$_Vector_const_iterator@V?$_Vector_val@U?$_Simple_types@V?$basic_string@DU?$char_traits@D@std@@V?$allocator@D@2@@std@@@std@@@std@@@std@@QEBAXAEBV12@@Z
	?_Construct_empty@?$basic_string@DU?$char_traits@D@std@@V?$allocator@D@2@@std@@AEAAXXZ
	?_Construct_empty@?$basic_string@_WU?$char_traits@_W@std@@V?$allocator@_W@2@@std@@AEAAXXZ
	?_Convert_narrow_to_wide@filesystem@std@@YA?AV?$basic_string@_WU?$char_traits@_W@std@@V?$allocator@_W@2@@2@W4__std_code_page@@V?$basic_string_view@DU?$char_traits@D@std@@@2@@Z
	?_Deallocate_for_capacity@?$basic_string@DU?$char_traits@D@std@@V?$allocator@D@2@@std@@CAXAEAV?$allocator@D@2@QEAD_K@Z
	?_Deallocate_for_capacity@?$basic_string@_WU?$char_traits@_W@std@@V?$allocator@_W@2@@std@@CAXAEAV?$allocator@_W@2@QEA_W_K@Z
	?_Decref@?$_Ptr_base@$$CBVModel@ov@@@std@@IEAAXXZ
	?_Decref@?$_Ptr_base@U_Dir_enum_impl@filesystem@std@@@std@@IEAAXXZ
	?_Decref@?$_Ptr_base@VModel@ov@@@std@@IEAAXXZ
	?_Decref@_Ref_count_base@std@@QEAAXXZ
	?_Decwref@_Ref_count_base@std@@QEAAXXZ
	?_Delete_this@?$_Ref_count_obj2@U_Dir_enum_impl@filesystem@std@@@std@@EEAAXXZ
	?_Destroy@?$_Ref_count_obj2@U_Dir_enum_impl@filesystem@std@@@std@@EEAAXXZ
	?_Eos@?$basic_string@DU?$char_traits@D@std@@V?$allocator@D@2@@std@@AEAAX_K@Z
	?_Eos@?$basic_string@_WU?$char_traits@_W@std@@V?$allocator@_W@2@@std@@AEAAX_K@Z
	?_Equal@?$basic_string@DU?$char_traits@D@std@@V?$allocator@D@2@@std@@QEBA_NAEBV12@@Z
	?_Find_extension@filesystem@std@@YAPEB_WQEB_W0@Z
	?_Find_filename@filesystem@std@@YAPEB_WQEB_WPEB_W@Z
	?_Find_relative_path@filesystem@std@@YAPEB_WQEB_W0@Z
	?_Find_root_name_end@filesystem@std@@YAPEB_WQEB_W0@Z
	?_Get_any_status@directory_entry@filesystem@std@@AEBA?AU_File_status_and_error@23@W4__std_fs_stats_flags@@@Z
	?_Get_any_status@filesystem@std@@YA?AU_File_status_and_error@12@AEBVpath@12@W4__std_fs_stats_flags@@@Z
	?_Get_deleter@_Ref_count_base@std@@UEBAPEAXAEBVtype_info@@@Z
	?_Get_first@?$_Compressed_pair@U?$default_delete@VChineseCLIPProcessor@@@std@@PEAVChineseCLIPProcessor@@$00@std@@QEAAAEAU?$default_delete@VChineseCLIPProcessor@@@2@XZ
	?_Get_first@?$_Compressed_pair@U?$default_delete@VCompiledModel@ov@@@std@@PEAVCompiledModel@ov@@$00@std@@QEAAAEAU?$default_delete@VCompiledModel@ov@@@2@XZ
	?_Get_first@?$_Compressed_pair@U?$default_delete@VCore@ov@@@std@@PEAVCore@ov@@$00@std@@QEAAAEAU?$default_delete@VCore@ov@@@2@XZ
	?_Get_first@?$_Compressed_pair@U?$default_delete@VSentencePieceProcessor@sentencepiece@@@std@@PEAVSentencePieceProcessor@sentencepiece@@$00@std@@QEAAAEAU?$default_delete@VSentencePieceProcessor@sentencepiece@@@2@XZ
	?_Get_first@?$_Compressed_pair@U?$default_delete@VVLMProcessor@@@std@@PEAVVLMProcessor@@$00@std@@QEAAAEAU?$default_delete@VVLMProcessor@@@2@XZ
	?_Get_first@?$_Compressed_pair@V?$allocator@D@std@@V?$_String_val@U?$_Simple_types@D@std@@@2@$00@std@@QEAAAEAV?$allocator@D@2@XZ
	?_Get_first@?$_Compressed_pair@V?$allocator@D@std@@V?$_String_val@U?$_Simple_types@D@std@@@2@$00@std@@QEBAAEBV?$allocator@D@2@XZ
	?_Get_first@?$_Compressed_pair@V?$allocator@D@std@@V?$_Vector_val@U?$_Simple_types@D@std@@@2@$00@std@@QEAAAEAV?$allocator@D@2@XZ
	?_Get_first@?$_Compressed_pair@V?$allocator@D@std@@V?$_Vector_val@U?$_Simple_types@D@std@@@2@$00@std@@QEBAAEBV?$allocator@D@2@XZ
	?_Get_first@?$_Compressed_pair@V?$allocator@H@std@@V?$_Vector_val@U?$_Simple_types@H@std@@@2@$00@std@@QEAAAEAV?$allocator@H@2@XZ
	?_Get_first@?$_Compressed_pair@V?$allocator@H@std@@V?$_Vector_val@U?$_Simple_types@H@std@@@2@$00@std@@QEBAAEBV?$allocator@H@2@XZ
	?_Get_first@?$_Compressed_pair@V?$allocator@I@std@@V?$_Vector_val@U?$_Simple_types@I@std@@@2@$00@std@@QEAAAEAV?$allocator@I@2@XZ
	?_Get_first@?$_Compressed_pair@V?$allocator@I@std@@V?$_Vector_val@U?$_Simple_types@I@std@@@2@$00@std@@QEBAAEBV?$allocator@I@2@XZ
	?_Get_first@?$_Compressed_pair@V?$allocator@M@std@@V?$_Vector_val@U?$_Simple_types@M@std@@@2@$00@std@@QEAAAEAV?$allocator@M@2@XZ
	?_Get_first@?$_Compressed_pair@V?$allocator@M@std@@V?$_Vector_val@U?$_Simple_types@M@std@@@2@$00@std@@QEBAAEBV?$allocator@M@2@XZ
	?_Get_first@?$_Compressed_pair@V?$allocator@PEAD@std@@V?$_Vector_val@U?$_Simple_types@PEAD@std@@@2@$00@std@@QEAAAEAV?$allocator@PEAD@2@XZ
	?_Get_first@?$_Compressed_pair@V?$allocator@PEAD@std@@V?$_Vector_val@U?$_Simple_types@PEAD@std@@@2@$00@std@@QEBAAEBV?$allocator@PEAD@2@XZ
	?_Get_first@?$_Compressed_pair@V?$allocator@PEBD@std@@V?$_Vector_val@U?$_Simple_types@PEBD@std@@@2@$00@std@@QEAAAEAV?$allocator@PEBD@2@XZ
	?_Get_first@?$_Compressed_pair@V?$allocator@PEBD@std@@V?$_Vector_val@U?$_Simple_types@PEBD@std@@@2@$00@std@@QEBAAEBV?$allocator@PEBD@2@XZ
	?_Get_first@?$_Compressed_pair@V?$allocator@U?$_Tree_node@U?$pair@$$CBV?$basic_string@DU?$char_traits@D@std@@V?$allocator@D@2@@std@@VAny@ov@@@std@@PEAX@std@@@std@@V?$_Tree_val@U?$_Tree_simple_types@U?$pair@$$CBV?$basic_string@DU?$char_traits@D@std@@V?$allocator@D@2@@std@@VAny@ov@@@std@@@std@@@2@$00@std@@QEAAAEAV?$allocator@U?$_Tree_node@U?$pair@$$CBV?$basic_string@DU?$char_traits@D@std@@V?$allocator@D@2@@std@@VAny@ov@@@std@@PEAX@std@@@2@XZ
	?_Get_first@?$_Compressed_pair@V?$allocator@UImageInput@@@std@@V?$_Vector_val@U?$_Simple_types@UImageInput@@@std@@@2@$00@std@@QEAAAEAV?$allocator@UImageInput@@@2@XZ
	?_Get_first@?$_Compressed_pair@V?$allocator@UImageInput@@@std@@V?$_Vector_val@U?$_Simple_types@UImageInput@@@std@@@2@$00@std@@QEBAAEBV?$allocator@UImageInput@@@2@XZ
	?_Get_first@?$_Compressed_pair@V?$allocator@V?$Output@$$CBVNode@ov@@@ov@@@std@@V?$_Vector_val@U?$_Simple_types@V?$Output@$$CBVNode@ov@@@ov@@@std@@@2@$00@std@@QEAAAEAV?$allocator@V?$Output@$$CBVNode@ov@@@ov@@@2@XZ
	?_Get_first@?$_Compressed_pair@V?$allocator@V?$Output@$$CBVNode@ov@@@ov@@@std@@V?$_Vector_val@U?$_Simple_types@V?$Output@$$CBVNode@ov@@@ov@@@std@@@2@$00@std@@QEBAAEBV?$allocator@V?$Output@$$CBVNode@ov@@@ov@@@2@XZ
	?_Get_first@?$_Compressed_pair@V?$allocator@V?$basic_string@DU?$char_traits@D@std@@V?$allocator@D@2@@std@@@std@@V?$_Vector_val@U?$_Simple_types@V?$basic_string@DU?$char_traits@D@std@@V?$allocator@D@2@@std@@@std@@@2@$00@std@@QEAAAEAV?$allocator@V?$basic_string@DU?$char_traits@D@std@@V?$allocator@D@2@@std@@@2@XZ
	?_Get_first@?$_Compressed_pair@V?$allocator@V?$basic_string@DU?$char_traits@D@std@@V?$allocator@D@2@@std@@@std@@V?$_Vector_val@U?$_Simple_types@V?$basic_string@DU?$char_traits@D@std@@V?$allocator@D@2@@std@@@std@@@2@$00@std@@QEBAAEBV?$allocator@V?$basic_string@DU?$char_traits@D@std@@V?$allocator@D@2@@std@@@2@XZ
	?_Get_first@?$_Compressed_pair@V?$allocator@V?$vector@DV?$allocator@D@std@@@std@@@std@@V?$_Vector_val@U?$_Simple_types@V?$vector@DV?$allocator@D@std@@@std@@@std@@@2@$00@std@@QEAAAEAV?$allocator@V?$vector@DV?$allocator@D@std@@@std@@@2@XZ
	?_Get_first@?$_Compressed_pair@V?$allocator@V?$vector@DV?$allocator@D@std@@@std@@@std@@V?$_Vector_val@U?$_Simple_types@V?$vector@DV?$allocator@D@std@@@std@@@std@@@2@$00@std@@QEBAAEBV?$allocator@V?$vector@DV?$allocator@D@std@@@std@@@2@XZ
	?_Get_first@?$_Compressed_pair@V?$allocator@V?$vector@HV?$allocator@H@std@@@std@@@std@@V?$_Vector_val@U?$_Simple_types@V?$vector@HV?$allocator@H@std@@@std@@@std@@@2@$00@std@@QEAAAEAV?$allocator@V?$vector@HV?$allocator@H@std@@@std@@@2@XZ
	?_Get_first@?$_Compressed_pair@V?$allocator@V?$vector@HV?$allocator@H@std@@@std@@@std@@V?$_Vector_val@U?$_Simple_types@V?$vector@HV?$allocator@H@std@@@std@@@std@@@2@$00@std@@QEBAAEBV?$allocator@V?$vector@HV?$allocator@H@std@@@std@@@2@XZ
	?_Get_first@?$_Compressed_pair@V?$allocator@V?$vector@MV?$allocator@M@std@@@std@@@std@@V?$_Vector_val@U?$_Simple_types@V?$vector@MV?$allocator@M@std@@@std@@@std@@@2@$00@std@@QEAAAEAV?$allocator@V?$vector@MV?$allocator@M@std@@@std@@@2@XZ
	?_Get_first@?$_Compressed_pair@V?$allocator@V?$vector@MV?$allocator@M@std@@@std@@@std@@V?$_Vector_val@U?$_Simple_types@V?$vector@MV?$allocator@M@std@@@std@@@std@@@2@$00@std@@QEBAAEBV?$allocator@V?$vector@MV?$allocator@M@std@@@std@@@2@XZ
	?_Get_first@?$_Compressed_pair@V?$allocator@_W@std@@V?$_String_val@U?$_Simple_types@_W@std@@@2@$00@std@@QEAAAEAV?$allocator@_W@2@XZ
	?_Get_first@?$_Compressed_pair@V?$allocator@_W@std@@V?$_String_val@U?$_Simple_types@_W@std@@@2@$00@std@@QEBAAEBV?$allocator@_W@2@XZ
	?_Get_scary@?$_Tree@V?$_Tmap_traits@V?$basic_string@DU?$char_traits@D@std@@V?$allocator@D@2@@std@@VAny@ov@@U?$less@V?$basic_string@DU?$char_traits@D@std@@V?$allocator@D@2@@std@@@2@V?$allocator@U?$pair@$$CBV?$basic_string@DU?$char_traits@D@std@@V?$allocator@D@2@@std@@VAny@ov@@@std@@@2@$0A@@std@@@std@@IEAAPEAV?$_Tree_val@U?$_Tree_simple_types@U?$pair@$$CBV?$basic_string@DU?$char_traits@D@std@@V?$allocator@D@2@@std@@VAny@ov@@@std@@@std@@@2@XZ
	?_Getal@?$_Tree@V?$_Tmap_traits@V?$basic_string@DU?$char_traits@D@std@@V?$allocator@D@2@@std@@VAny@ov@@U?$less@V?$basic_string@DU?$char_traits@D@std@@V?$allocator@D@2@@std@@@2@V?$allocator@U?$pair@$$CBV?$basic_string@DU?$char_traits@D@std@@V?$allocator@D@2@@std@@VAny@ov@@@std@@@2@$0A@@std@@@std@@IEAAAEAV?$allocator@U?$_Tree_node@U?$pair@$$CBV?$basic_string@DU?$char_traits@D@std@@V?$allocator@D@2@@std@@VAny@ov@@@std@@PEAX@std@@@2@XZ
	?_Getal@?$basic_string@DU?$char_traits@D@std@@V?$allocator@D@2@@std@@AEAAAEAV?$allocator@D@2@XZ
	?_Getal@?$basic_string@DU?$char_traits@D@std@@V?$allocator@D@2@@std@@AEBAAEBV?$allocator@D@2@XZ
	?_Getal@?$basic_string@_WU?$char_traits@_W@std@@V?$allocator@_W@2@@std@@AEAAAEAV?$allocator@_W@2@XZ
	?_Getal@?$basic_string@_WU?$char_traits@_W@std@@V?$allocator@_W@2@@std@@AEBAAEBV?$allocator@_W@2@XZ
	?_Getal@?$vector@DV?$allocator@D@std@@@std@@AEAAAEAV?$allocator@D@2@XZ
	?_Getal@?$vector@DV?$allocator@D@std@@@std@@AEBAAEBV?$allocator@D@2@XZ
	?_Getal@?$vector@HV?$allocator@H@std@@@std@@AEAAAEAV?$allocator@H@2@XZ
	?_Getal@?$vector@HV?$allocator@H@std@@@std@@AEBAAEBV?$allocator@H@2@XZ
	?_Getal@?$vector@IV?$allocator@I@std@@@std@@AEAAAEAV?$allocator@I@2@XZ
	?_Getal@?$vector@IV?$allocator@I@std@@@std@@AEBAAEBV?$allocator@I@2@XZ
	?_Getal@?$vector@MV?$allocator@M@std@@@std@@AEAAAEAV?$allocator@M@2@XZ
	?_Getal@?$vector@MV?$allocator@M@std@@@std@@AEBAAEBV?$allocator@M@2@XZ
	?_Getal@?$vector@PEADV?$allocator@PEAD@std@@@std@@AEAAAEAV?$allocator@PEAD@2@XZ
	?_Getal@?$vector@PEADV?$allocator@PEAD@std@@@std@@AEBAAEBV?$allocator@PEAD@2@XZ
	?_Getal@?$vector@PEBDV?$allocator@PEBD@std@@@std@@AEAAAEAV?$allocator@PEBD@2@XZ
	?_Getal@?$vector@PEBDV?$allocator@PEBD@std@@@std@@AEBAAEBV?$allocator@PEBD@2@XZ
	?_Getal@?$vector@UImageInput@@V?$allocator@UImageInput@@@std@@@std@@AEAAAEAV?$allocator@UImageInput@@@2@XZ
	?_Getal@?$vector@UImageInput@@V?$allocator@UImageInput@@@std@@@std@@AEBAAEBV?$allocator@UImageInput@@@2@XZ
	?_Getal@?$vector@V?$Output@$$CBVNode@ov@@@ov@@V?$allocator@V?$Output@$$CBVNode@ov@@@ov@@@std@@@std@@AEAAAEAV?$allocator@V?$Output@$$CBVNode@ov@@@ov@@@2@XZ
	?_Getal@?$vector@V?$Output@$$CBVNode@ov@@@ov@@V?$allocator@V?$Output@$$CBVNode@ov@@@ov@@@std@@@std@@AEBAAEBV?$allocator@V?$Output@$$CBVNode@ov@@@ov@@@2@XZ
	?_Getal@?$vector@V?$basic_string@DU?$char_traits@D@std@@V?$allocator@D@2@@std@@V?$allocator@V?$basic_string@DU?$char_traits@D@std@@V?$allocator@D@2@@std@@@2@@std@@AEAAAEAV?$allocator@V?$basic_string@DU?$char_traits@D@std@@V?$allocator@D@2@@std@@@2@XZ
	?_Getal@?$vector@V?$basic_string@DU?$char_traits@D@std@@V?$allocator@D@2@@std@@V?$allocator@V?$basic_string@DU?$char_traits@D@std@@V?$allocator@D@2@@std@@@2@@std@@AEBAAEBV?$allocator@V?$basic_string@DU?$char_traits@D@std@@V?$allocator@D@2@@std@@@2@XZ
	?_Getal@?$vector@V?$vector@DV?$allocator@D@std@@@std@@V?$allocator@V?$vector@DV?$allocator@D@std@@@std@@@2@@std@@AEAAAEAV?$allocator@V?$vector@DV?$allocator@D@std@@@std@@@2@XZ
	?_Getal@?$vector@V?$vector@DV?$allocator@D@std@@@std@@V?$allocator@V?$vector@DV?$allocator@D@std@@@std@@@2@@std@@AEBAAEBV?$allocator@V?$vector@DV?$allocator@D@std@@@std@@@2@XZ
	?_Getal@?$vector@V?$vector@HV?$allocator@H@std@@@std@@V?$allocator@V?$vector@HV?$allocator@H@std@@@std@@@2@@std@@AEAAAEAV?$allocator@V?$vector@HV?$allocator@H@std@@@std@@@2@XZ
	?_Getal@?$vector@V?$vector@HV?$allocator@H@std@@@std@@V?$allocator@V?$vector@HV?$allocator@H@std@@@std@@@2@@std@@AEBAAEBV?$allocator@V?$vector@HV?$allocator@H@std@@@std@@@2@XZ
	?_Getal@?$vector@V?$vector@MV?$allocator@M@std@@@std@@V?$allocator@V?$vector@MV?$allocator@M@std@@@std@@@2@@std@@AEAAAEAV?$allocator@V?$vector@MV?$allocator@M@std@@@std@@@2@XZ
	?_Getal@?$vector@V?$vector@MV?$allocator@M@std@@@std@@V?$allocator@V?$vector@MV?$allocator@M@std@@@std@@@2@@std@@AEBAAEBV?$allocator@V?$vector@MV?$allocator@M@std@@@std@@@2@XZ
	?_Has_drive_letter_prefix@filesystem@std@@YA_NQEB_W0@Z
	?_Incref@?$_Ptr_base@U_Dir_enum_impl@filesystem@std@@@std@@IEBAXXZ
	?_Incref@?$_Ptr_base@VModel@ov@@@std@@IEBAXXZ
	?_Incref@_Ref_count_base@std@@QEAAXXZ
	?_Is_constant_evaluated@std@@YA_NXZ
	?_Is_dot_or_dotdot@filesystem@std@@YA_NAEBU__std_fs_find_data@@@Z
	?_Is_drive_prefix@filesystem@std@@YA_NQEB_W@Z
	?_Large_mode_engaged@?$_String_val@U?$_Simple_types@D@std@@@std@@QEBA_NXZ
	?_Large_mode_engaged@?$_String_val@U?$_Simple_types@_W@std@@@std@@QEBA_NXZ
	?_Make_ec@std@@YA?AVerror_code@1@W4__std_win_error@@@Z
	?_Makestr@_System_error@std@@CA?AV?$basic_string@DU?$char_traits@D@std@@V?$allocator@D@2@@2@Verror_code@2@V32@@Z
	?_Maklocwcs@std@@YAPEA_WPEB_W@Z
	?_Mymtx@_Mutex_base@std@@AEAAPEAU_Mtx_internal_imp_t@@XZ
	?_Myptr@?$_String_val@U?$_Simple_types@D@std@@@std@@QEAAPEADXZ
	?_Myptr@?$_String_val@U?$_Simple_types@D@std@@@std@@QEBAPEBDXZ
	?_Myptr@?$_String_val@U?$_Simple_types@_W@std@@@std@@QEAAPEA_WXZ
	?_Myptr@?$_String_val@U?$_Simple_types@_W@std@@@std@@QEBAPEB_WXZ
	?_Not_good@_File_status_and_error@filesystem@std@@QEBA_NXZ
	?_Open@_Find_file_handle@filesystem@std@@QEAA?AW4__std_win_error@@PEB_WPEAU__std_fs_find_data@@@Z
	?_Open_dir@_Dir_enum_impl@filesystem@std@@SA?AW4__std_win_error@@AEAVpath@23@W4directory_options@23@AEAU_Find_file_handle@23@AEAU__std_fs_find_data@@@Z
	?_Orphan_all@?$basic_string@_WU?$char_traits@_W@std@@V?$allocator@_W@2@@std@@QEAAXXZ
	?_Orphan_all@_Container_base0@std@@QEAAXXZ
	?_Orphan_range@?$vector@DV?$allocator@D@std@@@std@@AEBAXPEAD0@Z
	?_Orphan_range@?$vector@HV?$allocator@H@std@@@std@@AEBAXPEAH0@Z
	?_Orphan_range@?$vector@MV?$allocator@M@std@@@std@@AEBAXPEAM0@Z
	?_Orphan_range@?$vector@PEBDV?$allocator@PEBD@std@@@std@@AEBAXPEAPEBD0@Z
	?_Orphan_range@?$vector@UImageInput@@V?$allocator@UImageInput@@@std@@@std@@AEBAXPEAUImageInput@@0@Z
	?_Orphan_range@?$vector@V?$basic_string@DU?$char_traits@D@std@@V?$allocator@D@2@@std@@V?$allocator@V?$basic_string@DU?$char_traits@D@std@@V?$allocator@D@2@@std@@@2@@std@@AEBAXPEAV?$basic_string@DU?$char_traits@D@std@@V?$allocator@D@2@@2@0@Z
	?_Orphan_range@?$vector@V?$vector@HV?$allocator@H@std@@@std@@V?$allocator@V?$vector@HV?$allocator@H@std@@@std@@@2@@std@@AEBAXPEAV?$vector@HV?$allocator@H@std@@@2@0@Z
	?_Orphan_range@?$vector@V?$vector@MV?$allocator@M@std@@@std@@V?$allocator@V?$vector@MV?$allocator@M@std@@@std@@@2@@std@@AEBAXPEAV?$vector@MV?$allocator@M@std@@@2@0@Z
	?_Parse_extension@filesystem@std@@YA?AV?$basic_string_view@_WU?$char_traits@_W@std@@@2@V32@@Z
	?_Pretty_message@filesystem_error@filesystem@std@@CA?AV?$basic_string@DU?$char_traits@D@std@@V?$allocator@D@2@@3@V?$basic_string_view@DU?$char_traits@D@std@@@3@AEBVpath@23@1@Z
	?_Range_compare@filesystem@std@@YAHQEB_W000@Z
	?_Refresh@_Dir_enum_impl@filesystem@std@@QEAAXAEBU__std_fs_find_data@@@Z
	?_Refresh@directory_entry@filesystem@std@@AEAAXAEBU__std_fs_find_data@@@Z
	?_Refresh@file_status@filesystem@std@@QEAAXW4__std_win_error@@AEBU__std_fs_stats@@@Z
	?_Release@?$_Uninitialized_backout_al@V?$allocator@D@std@@@std@@QEAAPEADXZ
	?_Release@?$_Uninitialized_backout_al@V?$allocator@H@std@@@std@@QEAAPEAHXZ
	?_Release@?$_Uninitialized_backout_al@V?$allocator@I@std@@@std@@QEAAPEAIXZ
	?_Release@?$_Uninitialized_backout_al@V?$allocator@M@std@@@std@@QEAAPEAMXZ
	?_Release@?$_Uninitialized_backout_al@V?$allocator@PEAD@std@@@std@@QEAAPEAPEADXZ
	?_Release@?$_Uninitialized_backout_al@V?$allocator@PEBD@std@@@std@@QEAAPEAPEBDXZ
	?_Release@?$_Uninitialized_backout_al@V?$allocator@UImageInput@@@std@@@std@@QEAAPEAUImageInput@@XZ
	?_Release@?$_Uninitialized_backout_al@V?$allocator@V?$Output@$$CBVNode@ov@@@ov@@@std@@@std@@QEAAPEAV?$Output@$$CBVNode@ov@@@ov@@XZ
	?_Release@?$_Uninitialized_backout_al@V?$allocator@V?$basic_string@DU?$char_traits@D@std@@V?$allocator@D@2@@std@@@std@@@std@@QEAAPEAV?$basic_string@DU?$char_traits@D@std@@V?$allocator@D@2@@2@XZ
	?_Release@?$_Uninitialized_backout_al@V?$allocator@V?$vector@DV?$allocator@D@std@@@std@@@std@@@std@@QEAAPEAV?$vector@DV?$allocator@D@std@@@2@XZ
	?_Release@?$_Uninitialized_backout_al@V?$allocator@V?$vector@HV?$allocator@H@std@@@std@@@std@@@std@@QEAAPEAV?$vector@HV?$allocator@H@std@@@2@XZ
	?_Release@?$_Uninitialized_backout_al@V?$allocator@V?$vector@MV?$allocator@M@std@@@std@@@std@@@std@@QEAAPEAV?$vector@MV?$allocator@M@std@@@2@XZ
	?_Release@_Fake_proxy_ptr_impl@std@@QEAAXXZ
	?_Seek_to@?$_String_const_iterator@V?$_String_val@U?$_Simple_types@D@std@@@std@@@std@@QEAAXPEBD@Z
	?_Seek_to@?$_Vector_const_iterator@V?$_Vector_val@U?$_Simple_types@V?$basic_string@DU?$char_traits@D@std@@V?$allocator@D@2@@std@@@std@@@std@@@std@@QEAAXPEBV?$basic_string@DU?$char_traits@D@std@@V?$allocator@D@2@@2@@Z
	?_Skip_dots@_Dir_enum_impl@filesystem@std@@SA?AW4__std_win_error@@W4__std_fs_dir_handle@@AEAU__std_fs_find_data@@@Z
	?_Swap@?$_Ptr_base@U_Dir_enum_impl@filesystem@std@@@std@@IEAAXAEAV12@@Z
	?_Swap_proxy_and_iterators@?$basic_string@DU?$char_traits@D@std@@V?$allocator@D@2@@std@@AEAAXAEAV12@@Z
	?_Swap_proxy_and_iterators@?$basic_string@_WU?$char_traits@_W@std@@V?$allocator@_W@2@@std@@AEAAXAEAV12@@Z
	?_Swap_proxy_and_iterators@_Container_base0@std@@QEAAXAEAU12@@Z
	?_Switch_to_buf@_Bxty@?$_String_val@U?$_Simple_types@D@std@@@std@@QEAAXXZ
	?_Switch_to_buf@_Bxty@?$_String_val@U?$_Simple_types@_W@std@@@std@@QEAAXXZ
	?_Symlink_hint_attributes@__std_fs_stats@@QEBA?AW4__std_fs_file_attr@@XZ
	?_Take_contents@?$basic_string@DU?$char_traits@D@std@@V?$allocator@D@2@@std@@AEAAXAEAV12@@Z
	?_Take_contents@?$basic_string@_WU?$char_traits@_W@std@@V?$allocator@_W@2@@std@@AEAAXAEAV12@@Z
	?_Throw_bad_array_new_length@std@@YAXXZ
	?_Throw_fs_error@filesystem@std@@YAXPEBDAEBVerror_code@2@AEBVpath@12@@Z
	?_Throw_fs_error@filesystem@std@@YAXPEBDW4__std_win_error@@@Z
	?_Throw_fs_error@filesystem@std@@YAXPEBDW4__std_win_error@@AEBVpath@12@@Z
	?_Throw_system_error@std@@YAXW4errc@1@@Z
	?_Throw_system_error_from_std_win_error@std@@YAXW4__std_win_error@@@Z
	?_Tidy@?$vector@DV?$allocator@D@std@@@std@@AEAAXXZ
	?_Tidy@?$vector@HV?$allocator@H@std@@@std@@AEAAXXZ
	?_Tidy@?$vector@IV?$allocator@I@std@@@std@@AEAAXXZ
	?_Tidy@?$vector@MV?$allocator@M@std@@@std@@AEAAXXZ
	?_Tidy@?$vector@PEADV?$allocator@PEAD@std@@@std@@AEAAXXZ
	?_Tidy@?$vector@PEBDV?$allocator@PEBD@std@@@std@@AEAAXXZ
	?_Tidy@?$vector@UImageInput@@V?$allocator@UImageInput@@@std@@@std@@AEAAXXZ
	?_Tidy@?$vector@V?$Output@$$CBVNode@ov@@@ov@@V?$allocator@V?$Output@$$CBVNode@ov@@@ov@@@std@@@std@@AEAAXXZ
	?_Tidy@?$vector@V?$basic_string@DU?$char_traits@D@std@@V?$allocator@D@2@@std@@V?$allocator@V?$basic_string@DU?$char_traits@D@std@@V?$allocator@D@2@@std@@@2@@std@@AEAAXXZ
	?_Tidy@?$vector@V?$vector@DV?$allocator@D@std@@@std@@V?$allocator@V?$vector@DV?$allocator@D@std@@@std@@@2@@std@@AEAAXXZ
	?_Tidy@?$vector@V?$vector@HV?$allocator@H@std@@@std@@V?$allocator@V?$vector@HV?$allocator@H@std@@@std@@@2@@std@@AEAAXXZ
	?_Tidy@?$vector@V?$vector@MV?$allocator@M@std@@@std@@V?$allocator@V?$vector@MV?$allocator@M@std@@@std@@@2@@std@@AEAAXXZ
	?_Tidy_deallocate@?$basic_string@DU?$char_traits@D@std@@V?$allocator@D@2@@std@@AEAAXXZ
	?_Tidy_deallocate@?$basic_string@_WU?$char_traits@_W@std@@V?$allocator@_W@2@@std@@AEAAXXZ
	?_Unchecked_begin@?$vector@MV?$allocator@M@std@@@std@@QEAAPEAMXZ
	?_Unchecked_begin@?$vector@UImageInput@@V?$allocator@UImageInput@@@std@@@std@@QEBAPEBUImageInput@@XZ
	?_Unchecked_begin@?$vector@V?$Output@$$CBVNode@ov@@@ov@@V?$allocator@V?$Output@$$CBVNode@ov@@@ov@@@std@@@std@@QEAAPEAV?$Output@$$CBVNode@ov@@@ov@@XZ
	?_Unchecked_begin@?$vector@V?$basic_string@DU?$char_traits@D@std@@V?$allocator@D@2@@std@@V?$allocator@V?$basic_string@DU?$char_traits@D@std@@V?$allocator@D@2@@std@@@2@@std@@QEAAPEAV?$basic_string@DU?$char_traits@D@std@@V?$allocator@D@2@@2@XZ
	?_Unchecked_begin@?$vector@V?$basic_string@DU?$char_traits@D@std@@V?$allocator@D@2@@std@@V?$allocator@V?$basic_string@DU?$char_traits@D@std@@V?$allocator@D@2@@std@@@2@@std@@QEBAPEBV?$basic_string@DU?$char_traits@D@std@@V?$allocator@D@2@@2@XZ
	?_Unchecked_begin@?$vector@V?$vector@MV?$allocator@M@std@@@std@@V?$allocator@V?$vector@MV?$allocator@M@std@@@std@@@2@@std@@QEBAPEBV?$vector@MV?$allocator@M@std@@@2@XZ
	?_Unchecked_end@?$vector@MV?$allocator@M@std@@@std@@QEAAPEAMXZ
	?_Unchecked_end@?$vector@UImageInput@@V?$allocator@UImageInput@@@std@@@std@@QEBAPEBUImageInput@@XZ
	?_Unchecked_end@?$vector@V?$Output@$$CBVNode@ov@@@ov@@V?$allocator@V?$Output@$$CBVNode@ov@@@ov@@@std@@@std@@QEAAPEAV?$Output@$$CBVNode@ov@@@ov@@XZ
	?_Unchecked_end@?$vector@V?$basic_string@DU?$char_traits@D@std@@V?$allocator@D@2@@std@@V?$allocator@V?$basic_string@DU?$char_traits@D@std@@V?$allocator@D@2@@std@@@2@@std@@QEAAPEAV?$basic_string@DU?$char_traits@D@std@@V?$allocator@D@2@@2@XZ
	?_Unchecked_end@?$vector@V?$basic_string@DU?$char_traits@D@std@@V?$allocator@D@2@@std@@V?$allocator@V?$basic_string@DU?$char_traits@D@std@@V?$allocator@D@2@@std@@@2@@std@@QEBAPEBV?$basic_string@DU?$char_traits@D@std@@V?$allocator@D@2@@2@XZ
	?_Unchecked_end@?$vector@V?$vector@MV?$allocator@M@std@@@std@@V?$allocator@V?$vector@MV?$allocator@M@std@@@std@@@2@@std@@QEBAPEBV?$vector@MV?$allocator@M@std@@@2@XZ
	?_Unwrapped@?$_String_iterator@V?$_String_val@U?$_Simple_types@D@std@@@std@@@std@@QEBAPEADXZ
	?_Unwrapped@?$_Vector_const_iterator@V?$_Vector_val@U?$_Simple_types@M@std@@@std@@@std@@QEBAPEBMXZ
	?_Unwrapped@?$_Vector_iterator@V?$_Vector_val@U?$_Simple_types@H@std@@@std@@@std@@QEBAPEAHXZ
	?_Unwrapped@?$_Vector_iterator@V?$_Vector_val@U?$_Simple_types@M@std@@@std@@@std@@QEBAPEAMXZ
	?_Unwrapped@?$_Vector_iterator@V?$_Vector_val@U?$_Simple_types@V?$basic_string@DU?$char_traits@D@std@@V?$allocator@D@2@@std@@@std@@@std@@@std@@QEBAPEAV?$basic_string@DU?$char_traits@D@std@@V?$allocator@D@2@@2@XZ
	?_Verify_offset@?$_String_const_iterator@V?$_String_val@U?$_Simple_types@D@std@@@std@@@std@@QEBAX_J@Z
	?_Verify_offset@?$_Vector_const_iterator@V?$_Vector_val@U?$_Simple_types@H@std@@@std@@@std@@QEBAX_J@Z
	?_Verify_offset@?$_Vector_const_iterator@V?$_Vector_val@U?$_Simple_types@M@std@@@std@@@std@@QEBAX_J@Z
	?_Verify_ownership_levels@_Mutex_base@std@@IEAA_NXZ
	?_Xlen_string@std@@YAXXZ
	?_Xlength@?$vector@DV?$allocator@D@std@@@std@@CAXXZ
	?_Xlength@?$vector@HV?$allocator@H@std@@@std@@CAXXZ
	?_Xlength@?$vector@IV?$allocator@I@std@@@std@@CAXXZ
	?_Xlength@?$vector@MV?$allocator@M@std@@@std@@CAXXZ
	?_Xlength@?$vector@PEADV?$allocator@PEAD@std@@@std@@CAXXZ
	?_Xlength@?$vector@PEBDV?$allocator@PEBD@std@@@std@@CAXXZ
	?_Xlength@?$vector@UImageInput@@V?$allocator@UImageInput@@@std@@@std@@CAXXZ
	?_Xlength@?$vector@V?$Output@$$CBVNode@ov@@@ov@@V?$allocator@V?$Output@$$CBVNode@ov@@@ov@@@std@@@std@@CAXXZ
	?_Xlength@?$vector@V?$basic_string@DU?$char_traits@D@std@@V?$allocator@D@2@@std@@V?$allocator@V?$basic_string@DU?$char_traits@D@std@@V?$allocator@D@2@@std@@@2@@std@@CAXXZ
	?_Xlength@?$vector@V?$vector@DV?$allocator@D@std@@@std@@V?$allocator@V?$vector@DV?$allocator@D@std@@@std@@@2@@std@@CAXXZ
	?_Xlength@?$vector@V?$vector@HV?$allocator@H@std@@@std@@V?$allocator@V?$vector@HV?$allocator@H@std@@@std@@@2@@std@@CAXXZ
	?_Xlength@?$vector@V?$vector@MV?$allocator@M@std@@@std@@V?$allocator@V?$vector@MV?$allocator@M@std@@@std@@@2@@std@@CAXXZ
	?_Xran@?$_String_val@U?$_Simple_types@D@std@@@std@@SAXXZ
	?_Xran@?$_String_val@U?$_Simple_types@_W@std@@@std@@SAXXZ
	?allocate@?$allocator@D@std@@QEAAPEAD_K@Z
	?allocate@?$allocator@H@std@@QEAAPEAH_K@Z
	?allocate@?$allocator@I@std@@QEAAPEAI_K@Z
	?allocate@?$allocator@M@std@@QEAAPEAM_K@Z
	?allocate@?$allocator@PEAD@std@@QEAAPEAPEAD_K@Z
	?allocate@?$allocator@PEBD@std@@QEAAPEAPEBD_K@Z
	?allocate@?$allocator@U?$_Tree_node@U?$pair@$$CBV?$basic_string@DU?$char_traits@D@std@@V?$allocator@D@2@@std@@VAny@ov@@@std@@PEAX@std@@@std@@QEAAPEAU?$_Tree_node@U?$pair@$$CBV?$basic_string@DU?$char_traits@D@std@@V?$allocator@D@2@@std@@VAny@ov@@@std@@PEAX@2@_K@Z
	?allocate@?$allocator@UImageInput@@@std@@QEAAPEAUImageInput@@_K@Z
	?allocate@?$allocator@V?$Output@$$CBVNode@ov@@@ov@@@std@@QEAAPEAV?$Output@$$CBVNode@ov@@@ov@@_K@Z
	?allocate@?$allocator@V?$basic_string@DU?$char_traits@D@std@@V?$allocator@D@2@@std@@@std@@QEAAPEAV?$basic_string@DU?$char_traits@D@std@@V?$allocator@D@2@@2@_K@Z
	?allocate@?$allocator@V?$vector@DV?$allocator@D@std@@@std@@@std@@QEAAPEAV?$vector@DV?$allocator@D@std@@@2@_K@Z
	?allocate@?$allocator@V?$vector@HV?$allocator@H@std@@@std@@@std@@QEAAPEAV?$vector@HV?$allocator@H@std@@@2@_K@Z
	?allocate@?$allocator@V?$vector@MV?$allocator@M@std@@@std@@@std@@QEAAPEAV?$vector@MV?$allocator@M@std@@@2@_K@Z
	?allocate@?$allocator@_W@std@@QEAAPEA_W_K@Z
	?append@?$basic_string@DU?$char_traits@D@std@@V?$allocator@D@2@@std@@QEAAAEAV12@AEBV12@@Z
	?append@?$basic_string@DU?$char_traits@D@std@@V?$allocator@D@2@@std@@QEAAAEAV12@QEBD@Z
	?append@?$basic_string@DU?$char_traits@D@std@@V?$allocator@D@2@@std@@QEAAAEAV12@_KD@Z
	?append@?$basic_string@_WU?$char_traits@_W@std@@V?$allocator@_W@2@@std@@QEAAAEAV12@QEB_W_K@Z
	?append@?$basic_string@_WU?$char_traits@_W@std@@V?$allocator@_W@2@@std@@QEAAAEAV12@_K_W@Z
	?assign@?$_Narrow_char_traits@DH@std@@SAPEADQEAD_KD@Z
	?assign@?$_Narrow_char_traits@DH@std@@SAXAEADAEBD@Z
	?assign@?$_WChar_traits@_W@std@@SAPEA_WQEA_W_K_W@Z
	?assign@?$_WChar_traits@_W@std@@SAXAEA_WAEB_W@Z
	?assign@?$basic_string@DU?$char_traits@D@std@@V?$allocator@D@2@@std@@QEAAAEAV12@QEBD@Z
	?assign@?$basic_string@_WU?$char_traits@_W@std@@V?$allocator@_W@2@@std@@QEAAAEAV12@QEB_W_K@Z
	?begin@?$basic_string@DU?$char_traits@D@std@@V?$allocator@D@2@@std@@QEAA?AV?$_String_iterator@V?$_String_val@U?$_Simple_types@D@std@@@std@@@2@XZ
	?begin@?$initializer_list@V?$basic_string@DU?$char_traits@D@std@@V?$allocator@D@2@@std@@@std@@QEBAPEBV?$basic_string@DU?$char_traits@D@std@@V?$allocator@D@2@@2@XZ
	?begin@?$initializer_list@V?$vector@MV?$allocator@M@std@@@std@@@std@@QEBAPEBV?$vector@MV?$allocator@M@std@@@2@XZ
	?begin@?$vector@HV?$allocator@H@std@@@std@@QEAA?AV?$_Vector_iterator@V?$_Vector_val@U?$_Simple_types@H@std@@@std@@@2@XZ
	?begin@?$vector@MV?$allocator@M@std@@@std@@QEAA?AV?$_Vector_iterator@V?$_Vector_val@U?$_Simple_types@M@std@@@std@@@2@XZ
	?begin@?$vector@MV?$allocator@M@std@@@std@@QEBA?AV?$_Vector_const_iterator@V?$_Vector_val@U?$_Simple_types@M@std@@@std@@@2@XZ
	?begin@?$vector@V?$basic_string@DU?$char_traits@D@std@@V?$allocator@D@2@@std@@V?$allocator@V?$basic_string@DU?$char_traits@D@std@@V?$allocator@D@2@@std@@@2@@std@@QEAA?AV?$_Vector_iterator@V?$_Vector_val@U?$_Simple_types@V?$basic_string@DU?$char_traits@D@std@@V?$allocator@D@2@@std@@@std@@@std@@@2@XZ
	?begin@filesystem@std@@YA?AVdirectory_iterator@12@V312@@Z
	?c_str@?$basic_string@DU?$char_traits@D@std@@V?$allocator@D@2@@std@@QEBAPEBDXZ
	?c_str@?$basic_string@_WU?$char_traits@_W@std@@V?$allocator@_W@2@@std@@QEBAPEB_WXZ
	?c_str@path@filesystem@std@@QEBAPEB_WXZ
	?capacity@?$vector@DV?$allocator@D@std@@@std@@QEBA_KXZ
	?capacity@?$vector@HV?$allocator@H@std@@@std@@QEBA_KXZ
	?capacity@?$vector@MV?$allocator@M@std@@@std@@QEBA_KXZ
	?capacity@?$vector@PEBDV?$allocator@PEBD@std@@@std@@QEBA_KXZ
	?capacity@?$vector@UImageInput@@V?$allocator@UImageInput@@@std@@@std@@QEBA_KXZ
	?capacity@?$vector@V?$basic_string@DU?$char_traits@D@std@@V?$allocator@D@2@@std@@V?$allocator@V?$basic_string@DU?$char_traits@D@std@@V?$allocator@D@2@@std@@@2@@std@@QEBA_KXZ
	?capacity@?$vector@V?$vector@HV?$allocator@H@std@@@std@@V?$allocator@V?$vector@HV?$allocator@H@std@@@std@@@2@@std@@QEBA_KXZ
	?capacity@?$vector@V?$vector@MV?$allocator@M@std@@@std@@V?$allocator@V?$vector@MV?$allocator@M@std@@@std@@@2@@std@@QEBA_KXZ
	?category@error_code@std@@QEBAAEBVerror_category@2@XZ
	?category@error_condition@std@@QEBAAEBVerror_category@2@XZ
	?clear@?$vector@HV?$allocator@H@std@@@std@@QEAAXXZ
	?clear@?$vector@V?$vector@HV?$allocator@H@std@@@std@@V?$allocator@V?$vector@HV?$allocator@H@std@@@std@@@2@@std@@QEAAXXZ
	?clear@error_code@std@@QEAAXXZ
	?compare@?$_Narrow_char_traits@DH@std@@SAHQEBD0_K@Z
	?compare@?$_WChar_traits@_W@std@@SAHQEB_W0_K@Z
	?copy@?$_Char_traits@DH@std@@SAPEADQEADQEBD_K@Z
	?copy@?$_Char_traits@_WG@std@@SAPEA_WQEA_WQEB_W_K@Z
	?data@?$basic_string@DU?$char_traits@D@std@@V?$allocator@D@2@@std@@QEAAPEADXZ
	?data@?$basic_string@DU?$char_traits@D@std@@V?$allocator@D@2@@std@@QEBAPEBDXZ
	?data@?$basic_string@_WU?$char_traits@_W@std@@V?$allocator@_W@2@@std@@QEAAPEA_WXZ
	?data@?$basic_string@_WU?$char_traits@_W@std@@V?$allocator@_W@2@@std@@QEBAPEB_WXZ
	?data@?$basic_string_view@DU?$char_traits@D@std@@@std@@QEBAPEBDXZ
	?data@?$basic_string_view@_WU?$char_traits@_W@std@@@std@@QEBAPEB_WXZ
	?data@?$vector@DV?$allocator@D@std@@@std@@QEAAPEADXZ
	?data@?$vector@IV?$allocator@I@std@@@std@@QEAAPEAIXZ
	?data@?$vector@PEADV?$allocator@PEAD@std@@@std@@QEAAPEAPEADXZ
	?data@?$vector@PEBDV?$allocator@PEBD@std@@@std@@QEAAPEAPEBDXZ
	?deallocate@?$_Default_allocator_traits@V?$allocator@U?$_Tree_node@U?$pair@$$CBV?$basic_string@DU?$char_traits@D@std@@V?$allocator@D@2@@std@@VAny@ov@@@std@@PEAX@std@@@std@@@std@@SAXAEAV?$allocator@U?$_Tree_node@U?$pair@$$CBV?$basic_string@DU?$char_traits@D@std@@V?$allocator@D@2@@std@@VAny@ov@@@std@@PEAX@std@@@2@QEAU?$_Tree_node@U?$pair@$$CBV?$basic_string@DU?$char_traits@D@std@@V?$allocator@D@2@@std@@VAny@ov@@@std@@PEAX@2@_K@Z
	?deallocate@?$allocator@D@std@@QEAAXQEAD_K@Z
	?deallocate@?$allocator@H@std@@QEAAXQEAH_K@Z
	?deallocate@?$allocator@I@std@@QEAAXQEAI_K@Z
	?deallocate@?$allocator@M@std@@QEAAXQEAM_K@Z
	?deallocate@?$allocator@PEAD@std@@QEAAXQEAPEAD_K@Z
	?deallocate@?$allocator@PEBD@std@@QEAAXQEAPEBD_K@Z
	?deallocate@?$allocator@UImageInput@@@std@@QEAAXQEAUImageInput@@_K@Z
	?deallocate@?$allocator@V?$Output@$$CBVNode@ov@@@ov@@@std@@QEAAXQEAV?$Output@$$CBVNode@ov@@@ov@@_K@Z
	?deallocate@?$allocator@V?$basic_string@DU?$char_traits@D@std@@V?$allocator@D@2@@std@@@std@@QEAAXQEAV?$basic_string@DU?$char_traits@D@std@@V?$allocator@D@2@@2@_K@Z
	?deallocate@?$allocator@V?$vector@DV?$allocator@D@std@@@std@@@std@@QEAAXQEAV?$vector@DV?$allocator@D@std@@@2@_K@Z
	?deallocate@?$allocator@V?$vector@HV?$allocator@H@std@@@std@@@std@@QEAAXQEAV?$vector@HV?$allocator@H@std@@@2@_K@Z
	?deallocate@?$allocator@V?$vector@MV?$allocator@M@std@@@std@@@std@@QEAAXQEAV?$vector@MV?$allocator@M@std@@@2@_K@Z
	?deallocate@?$allocator@_W@std@@QEAAXQEA_W_K@Z
	?default_error_condition@_System_error_category@std@@UEBA?AVerror_condition@2@H@Z
	?default_error_condition@error_category@std@@UEBA?AVerror_condition@2@H@Z
	?empty@?$basic_string@DU?$char_traits@D@std@@V?$allocator@D@2@@std@@QEBA_NXZ
	?empty@?$basic_string_view@DU?$char_traits@D@std@@@std@@QEBA_NXZ
	?empty@?$basic_string_view@_WU?$char_traits@_W@std@@@std@@QEBA_NXZ
	?empty@?$vector@MV?$allocator@M@std@@@std@@QEBA_NXZ
	?empty@?$vector@UImageInput@@V?$allocator@UImageInput@@@std@@@std@@QEBA_NXZ
	?empty@?$vector@V?$basic_string@DU?$char_traits@D@std@@V?$allocator@D@2@@std@@V?$allocator@V?$basic_string@DU?$char_traits@D@std@@V?$allocator@D@2@@std@@@2@@std@@QEBA_NXZ
	?empty@?$vector@V?$vector@MV?$allocator@M@std@@@std@@V?$allocator@V?$vector@MV?$allocator@M@std@@@std@@@2@@std@@QEBA_NXZ
	?end@?$basic_string@DU?$char_traits@D@std@@V?$allocator@D@2@@std@@QEAA?AV?$_String_iterator@V?$_String_val@U?$_Simple_types@D@std@@@std@@@2@XZ
	?end@?$initializer_list@V?$basic_string@DU?$char_traits@D@std@@V?$allocator@D@2@@std@@@std@@QEBAPEBV?$basic_string@DU?$char_traits@D@std@@V?$allocator@D@2@@2@XZ
	?end@?$initializer_list@V?$vector@MV?$allocator@M@std@@@std@@@std@@QEBAPEBV?$vector@MV?$allocator@M@std@@@2@XZ
	?end@?$vector@MV?$allocator@M@std@@@std@@QEAA?AV?$_Vector_iterator@V?$_Vector_val@U?$_Simple_types@M@std@@@std@@@2@XZ
	?end@?$vector@MV?$allocator@M@std@@@std@@QEBA?AV?$_Vector_const_iterator@V?$_Vector_val@U?$_Simple_types@M@std@@@std@@@2@XZ
	?end@?$vector@V?$basic_string@DU?$char_traits@D@std@@V?$allocator@D@2@@std@@V?$allocator@V?$basic_string@DU?$char_traits@D@std@@V?$allocator@D@2@@std@@@2@@std@@QEAA?AV?$_Vector_iterator@V?$_Vector_val@U?$_Simple_types@V?$basic_string@DU?$char_traits@D@std@@V?$allocator@D@2@@std@@@std@@@std@@@2@XZ
	?end@filesystem@std@@YA?AVdirectory_iterator@12@V312@@Z
	?eof@?$_Narrow_char_traits@DH@std@@SAHXZ
	?eq_int_type@?$_Narrow_char_traits@DH@std@@SA_NHH@Z
	?equivalent@error_category@std@@UEBA_NAEBVerror_code@2@H@Z
	?equivalent@error_category@std@@UEBA_NHAEBVerror_condition@2@@Z
	?erase@?$basic_string@_WU?$char_traits@_W@std@@V?$allocator@_W@2@@std@@QEAAAEAV12@_K@Z
	?exists@filesystem@std@@YA_NAEBVpath@12@@Z
	?exists@filesystem@std@@YA_NAEBVpath@12@AEAVerror_code@2@@Z
	?extension@path@filesystem@std@@QEBA?AV123@XZ
	?find@?$_Narrow_char_traits@DH@std@@SAPEBDQEBD_KAEBD@Z
	?find@?$basic_string@DU?$char_traits@D@std@@V?$allocator@D@2@@std@@QEBA_KAEBV12@_K@Z
	?floor@@YAMM@Z
	?generic_category@std@@YAAEBVerror_category@1@XZ
	?get@?$_Ptr_base@U_Dir_enum_impl@filesystem@std@@@std@@IEBAPEAU_Dir_enum_impl@filesystem@2@XZ
	?insert@?$basic_string@DU?$char_traits@D@std@@V?$allocator@D@2@@std@@QEAAAEAV12@_KQEBD@Z
	?is_absolute@path@filesystem@std@@QEBA_NXZ
	?is_directory@filesystem@std@@YA_NAEBVpath@12@@Z
	?is_directory@filesystem@std@@YA_NVfile_status@12@@Z
	?is_regular_file@directory_entry@filesystem@std@@QEBA_NXZ
	?is_regular_file@filesystem@std@@YA_NVfile_status@12@@Z
	?ldexp@@YAMMH@Z
	?length@?$_Narrow_char_traits@DH@std@@SA_KQEBD@Z
	?length@?$_WChar_traits@_W@std@@SA_KPEB_W@Z
	?length@?$basic_string@DU?$char_traits@D@std@@V?$allocator@D@2@@std@@QEBA_KXZ
	?lock@_Mutex_base@std@@QEAAXXZ
	?make_error_code@std@@YA?AVerror_code@1@W4errc@1@@Z
	?max_size@?$_Default_allocator_traits@V?$allocator@D@std@@@std@@SA_KAEBV?$allocator@D@2@@Z
	?max_size@?$_Default_allocator_traits@V?$allocator@H@std@@@std@@SA_KAEBV?$allocator@H@2@@Z
	?max_size@?$_Default_allocator_traits@V?$allocator@I@std@@@std@@SA_KAEBV?$allocator@I@2@@Z
	?max_size@?$_Default_allocator_traits@V?$allocator@M@std@@@std@@SA_KAEBV?$allocator@M@2@@Z
	?max_size@?$_Default_allocator_traits@V?$allocator@PEAD@std@@@std@@SA_KAEBV?$allocator@PEAD@2@@Z
	?max_size@?$_Default_allocator_traits@V?$allocator@PEBD@std@@@std@@SA_KAEBV?$allocator@PEBD@2@@Z
	?max_size@?$_Default_allocator_traits@V?$allocator@UImageInput@@@std@@@std@@SA_KAEBV?$allocator@UImageInput@@@2@@Z
	?max_size@?$_Default_allocator_traits@V?$allocator@V?$Output@$$CBVNode@ov@@@ov@@@std@@@std@@SA_KAEBV?$allocator@V?$Output@$$CBVNode@ov@@@ov@@@2@@Z
	?max_size@?$_Default_allocator_traits@V?$allocator@V?$basic_string@DU?$char_traits@D@std@@V?$allocator@D@2@@std@@@std@@@std@@SA_KAEBV?$allocator@V?$basic_string@DU?$char_traits@D@std@@V?$allocator@D@2@@std@@@2@@Z
	?max_size@?$_Default_allocator_traits@V?$allocator@V?$vector@DV?$allocator@D@std@@@std@@@std@@@std@@SA_KAEBV?$allocator@V?$vector@DV?$allocator@D@std@@@std@@@2@@Z
	?max_size@?$_Default_allocator_traits@V?$allocator@V?$vector@HV?$allocator@H@std@@@std@@@std@@@std@@SA_KAEBV?$allocator@V?$vector@HV?$allocator@H@std@@@std@@@2@@Z
	?max_size@?$_Default_allocator_traits@V?$allocator@V?$vector@MV?$allocator@M@std@@@std@@@std@@@std@@SA_KAEBV?$allocator@V?$vector@MV?$allocator@M@std@@@std@@@2@@Z
	?max_size@?$_Default_allocator_traits@V?$allocator@_W@std@@@std@@SA_KAEBV?$allocator@_W@2@@Z
	?max_size@?$basic_string@DU?$char_traits@D@std@@V?$allocator@D@2@@std@@QEBA_KXZ
	?max_size@?$basic_string@_WU?$char_traits@_W@std@@V?$allocator@_W@2@@std@@QEBA_KXZ
	?max_size@?$vector@DV?$allocator@D@std@@@std@@QEBA_KXZ
	?max_size@?$vector@HV?$allocator@H@std@@@std@@QEBA_KXZ
	?max_size@?$vector@IV?$allocator@I@std@@@std@@QEBA_KXZ
	?max_size@?$vector@MV?$allocator@M@std@@@std@@QEBA_KXZ
	?max_size@?$vector@PEADV?$allocator@PEAD@std@@@std@@QEBA_KXZ
	?max_size@?$vector@PEBDV?$allocator@PEBD@std@@@std@@QEBA_KXZ
	?max_size@?$vector@UImageInput@@V?$allocator@UImageInput@@@std@@@std@@QEBA_KXZ
	?max_size@?$vector@V?$Output@$$CBVNode@ov@@@ov@@V?$allocator@V?$Output@$$CBVNode@ov@@@ov@@@std@@@std@@QEBA_KXZ
	?max_size@?$vector@V?$basic_string@DU?$char_traits@D@std@@V?$allocator@D@2@@std@@V?$allocator@V?$basic_string@DU?$char_traits@D@std@@V?$allocator@D@2@@std@@@2@@std@@QEBA_KXZ
	?max_size@?$vector@V?$vector@DV?$allocator@D@std@@@std@@V?$allocator@V?$vector@DV?$allocator@D@std@@@std@@@2@@std@@QEBA_KXZ
	?max_size@?$vector@V?$vector@HV?$allocator@H@std@@@std@@V?$allocator@V?$vector@HV?$allocator@H@std@@@std@@@2@@std@@QEBA_KXZ
	?max_size@?$vector@V?$vector@MV?$allocator@M@std@@@std@@V?$allocator@V?$vector@MV?$allocator@M@std@@@std@@@2@@std@@QEBA_KXZ
	?message@_Generic_error_category@std@@UEBA?AV?$basic_string@DU?$char_traits@D@std@@V?$allocator@D@2@@2@H@Z
	?message@_System_error_category@std@@UEBA?AV?$basic_string@DU?$char_traits@D@std@@V?$allocator@D@2@@2@H@Z
	?message@error_code@std@@QEBA?AV?$basic_string@DU?$char_traits@D@std@@V?$allocator@D@2@@2@XZ
	?move@?$_Char_traits@DH@std@@SAPEADQEADQEBD_K@Z
	?move@?$_Char_traits@_WG@std@@SAPEA_WQEA_WQEB_W_K@Z
	?name@_Generic_error_category@std@@UEBAPEBDXZ
	?name@_System_error_category@std@@UEBAPEBDXZ
	?native@path@filesystem@std@@QEBAAEBV?$basic_string@_WU?$char_traits@_W@std@@V?$allocator@_W@2@@3@XZ
	?ok@Status@util@sentencepiece@@QEBA_NXZ
	?path@directory_entry@filesystem@std@@QEBAAEBV023@XZ
	?permissions@file_status@filesystem@std@@QEAAXW4perms@23@@Z
	?pow@@YAMMM@Z
	?push_back@?$basic_string@DU?$char_traits@D@std@@V?$allocator@D@2@@std@@QEAAXD@Z
	?push_back@?$basic_string@_WU?$char_traits@_W@std@@V?$allocator@_W@2@@std@@QEAAX_W@Z
	?push_back@?$vector@PEBDV?$allocator@PEBD@std@@@std@@QEAAX$$QEAPEBD@Z
	?push_back@?$vector@UImageInput@@V?$allocator@UImageInput@@@std@@@std@@QEAAX$$QEAUImageInput@@@Z
	?push_back@?$vector@V?$basic_string@DU?$char_traits@D@std@@V?$allocator@D@2@@std@@V?$allocator@V?$basic_string@DU?$char_traits@D@std@@V?$allocator@D@2@@std@@@2@@std@@QEAAX$$QEAV?$basic_string@DU?$char_traits@D@std@@V?$allocator@D@2@@2@@Z
	?push_back@?$vector@V?$basic_string@DU?$char_traits@D@std@@V?$allocator@D@2@@std@@V?$allocator@V?$basic_string@DU?$char_traits@D@std@@V?$allocator@D@2@@std@@@2@@std@@QEAAXAEBV?$basic_string@DU?$char_traits@D@std@@V?$allocator@D@2@@2@@Z
	?push_back@?$vector@V?$vector@HV?$allocator@H@std@@@std@@V?$allocator@V?$vector@HV?$allocator@H@std@@@std@@@2@@std@@QEAAXAEBV?$vector@HV?$allocator@H@std@@@2@@Z
	?push_back@?$vector@V?$vector@MV?$allocator@M@std@@@std@@V?$allocator@V?$vector@MV?$allocator@M@std@@@std@@@2@@std@@QEAAX$$QEAV?$vector@MV?$allocator@M@std@@@2@@Z
	?push_back@?$vector@V?$vector@MV?$allocator@M@std@@@std@@V?$allocator@V?$vector@MV?$allocator@M@std@@@std@@@2@@std@@QEAAXAEBV?$vector@MV?$allocator@M@std@@@2@@Z
	?release@?$unique_ptr@VChineseCLIPProcessor@@U?$default_delete@VChineseCLIPProcessor@@@std@@@std@@QEAAPEAVChineseCLIPProcessor@@XZ
	?release@?$unique_ptr@VCompiledModel@ov@@U?$default_delete@VCompiledModel@ov@@@std@@@std@@QEAAPEAVCompiledModel@ov@@XZ
	?release@?$unique_ptr@VCore@ov@@U?$default_delete@VCore@ov@@@std@@@std@@QEAAPEAVCore@ov@@XZ
	?release@?$unique_ptr@VSentencePieceProcessor@sentencepiece@@U?$default_delete@VSentencePieceProcessor@sentencepiece@@@std@@@std@@QEAAPEAVSentencePieceProcessor@sentencepiece@@XZ
	?release@?$unique_ptr@VVLMProcessor@@U?$default_delete@VVLMProcessor@@@std@@@std@@QEAAPEAVVLMProcessor@@XZ
	?remove_filename@path@filesystem@std@@QEAAAEAV123@XZ
	?replace_filename@path@filesystem@std@@QEAAAEAV123@AEBV123@@Z
	?reserve@?$basic_string@DU?$char_traits@D@std@@V?$allocator@D@2@@std@@QEAAX_K@Z
	?reset@?$shared_ptr@U_Dir_enum_impl@filesystem@std@@@std@@QEAAXXZ
	?reset@?$unique_ptr@VChineseCLIPProcessor@@U?$default_delete@VChineseCLIPProcessor@@@std@@@std@@QEAAXPEAVChineseCLIPProcessor@@@Z
	?reset@?$unique_ptr@VCompiledModel@ov@@U?$default_delete@VCompiledModel@ov@@@std@@@std@@QEAAXPEAVCompiledModel@ov@@@Z
	?reset@?$unique_ptr@VCore@ov@@U?$default_delete@VCore@ov@@@std@@@std@@QEAAXPEAVCore@ov@@@Z
	?reset@?$unique_ptr@VSentencePieceProcessor@sentencepiece@@U?$default_delete@VSentencePieceProcessor@sentencepiece@@@std@@@std@@QEAAXPEAVSentencePieceProcessor@sentencepiece@@@Z
	?reset@?$unique_ptr@VVLMProcessor@@U?$default_delete@VVLMProcessor@@@std@@@std@@QEAAXPEAVVLMProcessor@@@Z
	?resize@?$basic_string@DU?$char_traits@D@std@@V?$allocator@D@2@@std@@QEAAX_KD@Z
	?resize@?$basic_string@_WU?$char_traits@_W@std@@V?$allocator@_W@2@@std@@QEAAX_K_W@Z
	?resize@?$vector@DV?$allocator@D@std@@@std@@QEAAX_K@Z
	?resize@?$vector@HV?$allocator@H@std@@@std@@QEAAX_KAEBH@Z
	?resize@?$vector@MV?$allocator@M@std@@@std@@QEAAX_KAEBM@Z
	?select_on_container_copy_construction@?$_Default_allocator_traits@V?$allocator@D@std@@@std@@SA?AV?$allocator@D@2@AEBV32@@Z
	?select_on_container_copy_construction@?$_Default_allocator_traits@V?$allocator@H@std@@@std@@SA?AV?$allocator@H@2@AEBV32@@Z
	?select_on_container_copy_construction@?$_Default_allocator_traits@V?$allocator@M@std@@@std@@SA?AV?$allocator@M@2@AEBV32@@Z
	?select_on_container_copy_construction@?$_Default_allocator_traits@V?$allocator@V?$Output@$$CBVNode@ov@@@ov@@@std@@@std@@SA?AV?$allocator@V?$Output@$$CBVNode@ov@@@ov@@@2@AEBV32@@Z
	?select_on_container_copy_construction@?$_Default_allocator_traits@V?$allocator@_W@std@@@std@@SA?AV?$allocator@_W@2@AEBV32@@Z
	?size@?$basic_string@DU?$char_traits@D@std@@V?$allocator@D@2@@std@@QEBA_KXZ
	?size@?$basic_string@_WU?$char_traits@_W@std@@V?$allocator@_W@2@@std@@QEBA_KXZ
	?size@?$basic_string_view@DU?$char_traits@D@std@@@std@@QEBA_KXZ
	?size@?$basic_string_view@_WU?$char_traits@_W@std@@@std@@QEBA_KXZ
	?size@?$initializer_list@V?$basic_string@DU?$char_traits@D@std@@V?$allocator@D@2@@std@@@std@@QEBA_KXZ
	?size@?$initializer_list@V?$vector@MV?$allocator@M@std@@@std@@@std@@QEBA_KXZ
	?size@?$vector@DV?$allocator@D@std@@@std@@QEBA_KXZ
	?size@?$vector@HV?$allocator@H@std@@@std@@QEBA_KXZ
	?size@?$vector@MV?$allocator@M@std@@@std@@QEBA_KXZ
	?size@?$vector@UImageInput@@V?$allocator@UImageInput@@@std@@@std@@QEBA_KXZ
	?size@?$vector@V?$basic_string@DU?$char_traits@D@std@@V?$allocator@D@2@@std@@V?$allocator@V?$basic_string@DU?$char_traits@D@std@@V?$allocator@D@2@@std@@@2@@std@@QEBA_KXZ
	?size@?$vector@V?$vector@MV?$allocator@M@std@@@std@@V?$allocator@V?$vector@MV?$allocator@M@std@@@std@@@2@@std@@QEBA_KXZ
	?sqrt@@YAMM@Z
	?status@directory_entry@filesystem@std@@QEBA?AVfile_status@23@XZ
	?status@filesystem@std@@YA?AVfile_status@12@AEBVpath@12@@Z
	?status@filesystem@std@@YA?AVfile_status@12@AEBVpath@12@AEAVerror_code@2@@Z
	?string@path@filesystem@std@@QEBA?AV?$basic_string@DU?$char_traits@D@std@@V?$allocator@D@2@@3@XZ
	?substr@?$basic_string@DU?$char_traits@D@std@@V?$allocator@D@2@@std@@QEBA?AV12@_K0@Z
	?swap@?$shared_ptr@U_Dir_enum_impl@filesystem@std@@@std@@QEAAXAEAV12@@Z
	?system_category@std@@YAAEBVerror_category@1@XZ
	?to_string@std@@YA?AV?$basic_string@DU?$char_traits@D@std@@V?$allocator@D@2@@1@H@Z
	?type@file_status@filesystem@std@@QEAAXW4file_type@23@@Z
	?type@file_status@filesystem@std@@QEBA?AW4file_type@23@XZ
	?unlock@_Mutex_base@std@@QEAAXXZ
	?value@error_code@std@@QEBAHXZ
	?value@error_condition@std@@QEBAHXZ
	?what@exception@std@@UEBAPEBDXZ
	?what@filesystem_error@filesystem@std@@UEBAPEBDXZ
	Helicon_CLIP_CosineSimilarity
	Helicon_CLIP_EncodeImage
	Helicon_CLIP_EncodeText
	Helicon_Cleanup
	Helicon_FreeEmbeddings
	Helicon_FreeImagePaths
	Helicon_FreeResults
	Helicon_GetImagePaths
	Helicon_GetVersion
	Helicon_Initialize
	Helicon_IsInitialized
	Helicon_VLM_InferenceImages
	Helicon_VLM_InferenceText
	__std_is_file_not_found
	ldexpf
	stbi_convert_iphone_png_to_rgb
	stbi_convert_iphone_png_to_rgb_thread
	stbi_failure_reason
	stbi_hdr_to_ldr_gamma
	stbi_hdr_to_ldr_scale
	stbi_image_free
	stbi_info
	stbi_info_from_callbacks
	stbi_info_from_file
	stbi_info_from_memory
	stbi_is_16_bit
	stbi_is_16_bit_from_callbacks
	stbi_is_16_bit_from_file
	stbi_is_16_bit_from_memory
	stbi_is_hdr
	stbi_is_hdr_from_callbacks
	stbi_is_hdr_from_file
	stbi_is_hdr_from_memory
	stbi_ldr_to_hdr_gamma
	stbi_ldr_to_hdr_scale
	stbi_load
	stbi_load_16
	stbi_load_16_from_callbacks
	stbi_load_16_from_memory
	stbi_load_from_callbacks
	stbi_load_from_file
	stbi_load_from_file_16
	stbi_load_from_memory
	stbi_load_gif_from_memory
	stbi_loadf
	stbi_loadf_from_callbacks
	stbi_loadf_from_file
	stbi_loadf_from_memory
	stbi_set_flip_vertically_on_load
	stbi_set_flip_vertically_on_load_thread
	stbi_set_unpremultiply_on_load
	stbi_set_unpremultiply_on_load_thread
	stbi_zlib_decode_buffer
	stbi_zlib_decode_malloc
	stbi_zlib_decode_malloc_guesssize
	stbi_zlib_decode_malloc_guesssize_headerflag
	stbi_zlib_decode_noheader_buffer
	stbi_zlib_decode_noheader_malloc
	wmemcmp
	wmemcpy
	wmemset
